Archive member included because of file (symbol)

/Users/imac/Develop/stm32f4/arm_gcc/gcc-arm-none-eabi-4_7-2013q3/bin/../lib/gcc/arm-none-eabi/4.7.4/../../../../arm-none-eabi/lib/armv7-m/libc.a(lib_a-ctype_.o)
                              Ap_StrCmd.o (__ctype_ptr__)
/Users/imac/Develop/stm32f4/arm_gcc/gcc-arm-none-eabi-4_7-2013q3/bin/../lib/gcc/arm-none-eabi/4.7.4/../../../../arm-none-eabi/lib/armv7-m/libc.a(lib_a-errno.o)
                              Lb_Util.o (__errno)
/Users/imac/Develop/stm32f4/arm_gcc/gcc-arm-none-eabi-4_7-2013q3/bin/../lib/gcc/arm-none-eabi/4.7.4/../../../../arm-none-eabi/lib/armv7-m/libc.a(lib_a-impure.o)
                              /Users/imac/Develop/stm32f4/arm_gcc/gcc-arm-none-eabi-4_7-2013q3/bin/../lib/gcc/arm-none-eabi/4.7.4/../../../../arm-none-eabi/lib/armv7-m/libc.a(lib_a-errno.o) (_impure_ptr)
/Users/imac/Develop/stm32f4/arm_gcc/gcc-arm-none-eabi-4_7-2013q3/bin/../lib/gcc/arm-none-eabi/4.7.4/../../../../arm-none-eabi/lib/armv7-m/libc.a(lib_a-sscanf.o)
                              Ap_StrCmd.o (sscanf)
/Users/imac/Develop/stm32f4/arm_gcc/gcc-arm-none-eabi-4_7-2013q3/bin/../lib/gcc/arm-none-eabi/4.7.4/../../../../arm-none-eabi/lib/armv7-m/libc.a(lib_a-stdio.o)
                              /Users/imac/Develop/stm32f4/arm_gcc/gcc-arm-none-eabi-4_7-2013q3/bin/../lib/gcc/arm-none-eabi/4.7.4/../../../../arm-none-eabi/lib/armv7-m/libc.a(lib_a-sscanf.o) (__seofread)
/Users/imac/Develop/stm32f4/arm_gcc/gcc-arm-none-eabi-4_7-2013q3/bin/../lib/gcc/arm-none-eabi/4.7.4/../../../../arm-none-eabi/lib/armv7-m/libc.a(lib_a-strcmp.o)
                              Ap_StrCmd_MOVE.o (strcmp)
/Users/imac/Develop/stm32f4/arm_gcc/gcc-arm-none-eabi-4_7-2013q3/bin/../lib/gcc/arm-none-eabi/4.7.4/../../../../arm-none-eabi/lib/armv7-m/libc.a(lib_a-strlen.o)
                              Ap_StrCmd.o (strlen)
/Users/imac/Develop/stm32f4/arm_gcc/gcc-arm-none-eabi-4_7-2013q3/bin/../lib/gcc/arm-none-eabi/4.7.4/../../../../arm-none-eabi/lib/armv7-m/libc.a(lib_a-strncmp.o)
                              Ap_StrCmd.o (strncmp)
/Users/imac/Develop/stm32f4/arm_gcc/gcc-arm-none-eabi-4_7-2013q3/bin/../lib/gcc/arm-none-eabi/4.7.4/../../../../arm-none-eabi/lib/armv7-m/libc.a(lib_a-strtok.o)
                              Lb_Util.o (strtok)
/Users/imac/Develop/stm32f4/arm_gcc/gcc-arm-none-eabi-4_7-2013q3/bin/../lib/gcc/arm-none-eabi/4.7.4/../../../../arm-none-eabi/lib/armv7-m/libc.a(lib_a-strtok_r.o)
                              /Users/imac/Develop/stm32f4/arm_gcc/gcc-arm-none-eabi-4_7-2013q3/bin/../lib/gcc/arm-none-eabi/4.7.4/../../../../arm-none-eabi/lib/armv7-m/libc.a(lib_a-strtok.o) (__strtok_r)
/Users/imac/Develop/stm32f4/arm_gcc/gcc-arm-none-eabi-4_7-2013q3/bin/../lib/gcc/arm-none-eabi/4.7.4/../../../../arm-none-eabi/lib/armv7-m/libc.a(lib_a-svfscanf.o)
                              /Users/imac/Develop/stm32f4/arm_gcc/gcc-arm-none-eabi-4_7-2013q3/bin/../lib/gcc/arm-none-eabi/4.7.4/../../../../arm-none-eabi/lib/armv7-m/libc.a(lib_a-sscanf.o) (__ssvfscanf_r)
/Users/imac/Develop/stm32f4/arm_gcc/gcc-arm-none-eabi-4_7-2013q3/bin/../lib/gcc/arm-none-eabi/4.7.4/../../../../arm-none-eabi/lib/armv7-m/libc.a(lib_a-writer.o)
                              /Users/imac/Develop/stm32f4/arm_gcc/gcc-arm-none-eabi-4_7-2013q3/bin/../lib/gcc/arm-none-eabi/4.7.4/../../../../arm-none-eabi/lib/armv7-m/libc.a(lib_a-stdio.o) (_write_r)
/Users/imac/Develop/stm32f4/arm_gcc/gcc-arm-none-eabi-4_7-2013q3/bin/../lib/gcc/arm-none-eabi/4.7.4/../../../../arm-none-eabi/lib/armv7-m/libc.a(lib_a-closer.o)
                              /Users/imac/Develop/stm32f4/arm_gcc/gcc-arm-none-eabi-4_7-2013q3/bin/../lib/gcc/arm-none-eabi/4.7.4/../../../../arm-none-eabi/lib/armv7-m/libc.a(lib_a-stdio.o) (_close_r)
/Users/imac/Develop/stm32f4/arm_gcc/gcc-arm-none-eabi-4_7-2013q3/bin/../lib/gcc/arm-none-eabi/4.7.4/../../../../arm-none-eabi/lib/armv7-m/libc.a(lib_a-findfp.o)
                              /Users/imac/Develop/stm32f4/arm_gcc/gcc-arm-none-eabi-4_7-2013q3/bin/../lib/gcc/arm-none-eabi/4.7.4/../../../../arm-none-eabi/lib/armv7-m/libc.a(lib_a-svfscanf.o) (__sfp_lock_acquire)
/Users/imac/Develop/stm32f4/arm_gcc/gcc-arm-none-eabi-4_7-2013q3/bin/../lib/gcc/arm-none-eabi/4.7.4/../../../../arm-none-eabi/lib/armv7-m/libc.a(lib_a-fwalk.o)
                              /Users/imac/Develop/stm32f4/arm_gcc/gcc-arm-none-eabi-4_7-2013q3/bin/../lib/gcc/arm-none-eabi/4.7.4/../../../../arm-none-eabi/lib/armv7-m/libc.a(lib_a-findfp.o) (_fwalk)
/Users/imac/Develop/stm32f4/arm_gcc/gcc-arm-none-eabi-4_7-2013q3/bin/../lib/gcc/arm-none-eabi/4.7.4/../../../../arm-none-eabi/lib/armv7-m/libc.a(lib_a-iswspace.o)
                              /Users/imac/Develop/stm32f4/arm_gcc/gcc-arm-none-eabi-4_7-2013q3/bin/../lib/gcc/arm-none-eabi/4.7.4/../../../../arm-none-eabi/lib/armv7-m/libc.a(lib_a-svfscanf.o) (iswspace)
/Users/imac/Develop/stm32f4/arm_gcc/gcc-arm-none-eabi-4_7-2013q3/bin/../lib/gcc/arm-none-eabi/4.7.4/../../../../arm-none-eabi/lib/armv7-m/libc.a(lib_a-locale.o)
                              /Users/imac/Develop/stm32f4/arm_gcc/gcc-arm-none-eabi-4_7-2013q3/bin/../lib/gcc/arm-none-eabi/4.7.4/../../../../arm-none-eabi/lib/armv7-m/libc.a(lib_a-svfscanf.o) (__locale_mb_cur_max)
/Users/imac/Develop/stm32f4/arm_gcc/gcc-arm-none-eabi-4_7-2013q3/bin/../lib/gcc/arm-none-eabi/4.7.4/../../../../arm-none-eabi/lib/armv7-m/libc.a(lib_a-lseekr.o)
                              /Users/imac/Develop/stm32f4/arm_gcc/gcc-arm-none-eabi-4_7-2013q3/bin/../lib/gcc/arm-none-eabi/4.7.4/../../../../arm-none-eabi/lib/armv7-m/libc.a(lib_a-stdio.o) (_lseek_r)
/Users/imac/Develop/stm32f4/arm_gcc/gcc-arm-none-eabi-4_7-2013q3/bin/../lib/gcc/arm-none-eabi/4.7.4/../../../../arm-none-eabi/lib/armv7-m/libc.a(lib_a-mallocr.o)
                              /Users/imac/Develop/stm32f4/arm_gcc/gcc-arm-none-eabi-4_7-2013q3/bin/../lib/gcc/arm-none-eabi/4.7.4/../../../../arm-none-eabi/lib/armv7-m/libc.a(lib_a-findfp.o) (_malloc_r)
/Users/imac/Develop/stm32f4/arm_gcc/gcc-arm-none-eabi-4_7-2013q3/bin/../lib/gcc/arm-none-eabi/4.7.4/../../../../arm-none-eabi/lib/armv7-m/libc.a(lib_a-mbrtowc.o)
                              /Users/imac/Develop/stm32f4/arm_gcc/gcc-arm-none-eabi-4_7-2013q3/bin/../lib/gcc/arm-none-eabi/4.7.4/../../../../arm-none-eabi/lib/armv7-m/libc.a(lib_a-svfscanf.o) (_mbrtowc_r)
/Users/imac/Develop/stm32f4/arm_gcc/gcc-arm-none-eabi-4_7-2013q3/bin/../lib/gcc/arm-none-eabi/4.7.4/../../../../arm-none-eabi/lib/armv7-m/libc.a(lib_a-mbtowc_r.o)
                              /Users/imac/Develop/stm32f4/arm_gcc/gcc-arm-none-eabi-4_7-2013q3/bin/../lib/gcc/arm-none-eabi/4.7.4/../../../../arm-none-eabi/lib/armv7-m/libc.a(lib_a-mbrtowc.o) (__mbtowc)
/Users/imac/Develop/stm32f4/arm_gcc/gcc-arm-none-eabi-4_7-2013q3/bin/../lib/gcc/arm-none-eabi/4.7.4/../../../../arm-none-eabi/lib/armv7-m/libc.a(lib_a-memset.o)
                              /Users/imac/Develop/stm32f4/arm_gcc/gcc-arm-none-eabi-4_7-2013q3/bin/../lib/gcc/arm-none-eabi/4.7.4/../../../../arm-none-eabi/lib/armv7-m/libc.a(lib_a-svfscanf.o) (memset)
/Users/imac/Develop/stm32f4/arm_gcc/gcc-arm-none-eabi-4_7-2013q3/bin/../lib/gcc/arm-none-eabi/4.7.4/../../../../arm-none-eabi/lib/armv7-m/libc.a(lib_a-mlock.o)
                              /Users/imac/Develop/stm32f4/arm_gcc/gcc-arm-none-eabi-4_7-2013q3/bin/../lib/gcc/arm-none-eabi/4.7.4/../../../../arm-none-eabi/lib/armv7-m/libc.a(lib_a-mallocr.o) (__malloc_lock)
/Users/imac/Develop/stm32f4/arm_gcc/gcc-arm-none-eabi-4_7-2013q3/bin/../lib/gcc/arm-none-eabi/4.7.4/../../../../arm-none-eabi/lib/armv7-m/libc.a(lib_a-readr.o)
                              /Users/imac/Develop/stm32f4/arm_gcc/gcc-arm-none-eabi-4_7-2013q3/bin/../lib/gcc/arm-none-eabi/4.7.4/../../../../arm-none-eabi/lib/armv7-m/libc.a(lib_a-stdio.o) (_read_r)
/Users/imac/Develop/stm32f4/arm_gcc/gcc-arm-none-eabi-4_7-2013q3/bin/../lib/gcc/arm-none-eabi/4.7.4/../../../../arm-none-eabi/lib/armv7-m/libc.a(lib_a-reent.o)
                              /Users/imac/Develop/stm32f4/arm_gcc/gcc-arm-none-eabi-4_7-2013q3/bin/../lib/gcc/arm-none-eabi/4.7.4/../../../../arm-none-eabi/lib/armv7-m/libc.a(lib_a-writer.o) (errno)
/Users/imac/Develop/stm32f4/arm_gcc/gcc-arm-none-eabi-4_7-2013q3/bin/../lib/gcc/arm-none-eabi/4.7.4/../../../../arm-none-eabi/lib/armv7-m/libc.a(lib_a-s_fpclassify.o)
                              /Users/imac/Develop/stm32f4/arm_gcc/gcc-arm-none-eabi-4_7-2013q3/bin/../lib/gcc/arm-none-eabi/4.7.4/../../../../arm-none-eabi/lib/armv7-m/libc.a(lib_a-svfscanf.o) (__fpclassifyd)
/Users/imac/Develop/stm32f4/arm_gcc/gcc-arm-none-eabi-4_7-2013q3/bin/../lib/gcc/arm-none-eabi/4.7.4/../../../../arm-none-eabi/lib/armv7-m/libc.a(lib_a-sbrkr.o)
                              /Users/imac/Develop/stm32f4/arm_gcc/gcc-arm-none-eabi-4_7-2013q3/bin/../lib/gcc/arm-none-eabi/4.7.4/../../../../arm-none-eabi/lib/armv7-m/libc.a(lib_a-mallocr.o) (_sbrk_r)
/Users/imac/Develop/stm32f4/arm_gcc/gcc-arm-none-eabi-4_7-2013q3/bin/../lib/gcc/arm-none-eabi/4.7.4/../../../../arm-none-eabi/lib/armv7-m/libc.a(lib_a-sccl.o)
                              /Users/imac/Develop/stm32f4/arm_gcc/gcc-arm-none-eabi-4_7-2013q3/bin/../lib/gcc/arm-none-eabi/4.7.4/../../../../arm-none-eabi/lib/armv7-m/libc.a(lib_a-svfscanf.o) (__sccl)
/Users/imac/Develop/stm32f4/arm_gcc/gcc-arm-none-eabi-4_7-2013q3/bin/../lib/gcc/arm-none-eabi/4.7.4/../../../../arm-none-eabi/lib/armv7-m/libc.a(lib_a-sf_nan.o)
                              /Users/imac/Develop/stm32f4/arm_gcc/gcc-arm-none-eabi-4_7-2013q3/bin/../lib/gcc/arm-none-eabi/4.7.4/../../../../arm-none-eabi/lib/armv7-m/libc.a(lib_a-svfscanf.o) (nanf)
/Users/imac/Develop/stm32f4/arm_gcc/gcc-arm-none-eabi-4_7-2013q3/bin/../lib/gcc/arm-none-eabi/4.7.4/../../../../arm-none-eabi/lib/armv7-m/libc.a(lib_a-sprintf.o)
                              /Users/imac/Develop/stm32f4/arm_gcc/gcc-arm-none-eabi-4_7-2013q3/bin/../lib/gcc/arm-none-eabi/4.7.4/../../../../arm-none-eabi/lib/armv7-m/libc.a(lib_a-svfscanf.o) (sprintf)
/Users/imac/Develop/stm32f4/arm_gcc/gcc-arm-none-eabi-4_7-2013q3/bin/../lib/gcc/arm-none-eabi/4.7.4/../../../../arm-none-eabi/lib/armv7-m/libc.a(lib_a-strtod.o)
                              /Users/imac/Develop/stm32f4/arm_gcc/gcc-arm-none-eabi-4_7-2013q3/bin/../lib/gcc/arm-none-eabi/4.7.4/../../../../arm-none-eabi/lib/armv7-m/libc.a(lib_a-svfscanf.o) (_strtod_r)
/Users/imac/Develop/stm32f4/arm_gcc/gcc-arm-none-eabi-4_7-2013q3/bin/../lib/gcc/arm-none-eabi/4.7.4/../../../../arm-none-eabi/lib/armv7-m/libc.a(lib_a-strtol.o)
                              /Users/imac/Develop/stm32f4/arm_gcc/gcc-arm-none-eabi-4_7-2013q3/bin/../lib/gcc/arm-none-eabi/4.7.4/../../../../arm-none-eabi/lib/armv7-m/libc.a(lib_a-svfscanf.o) (_strtol_r)
/Users/imac/Develop/stm32f4/arm_gcc/gcc-arm-none-eabi-4_7-2013q3/bin/../lib/gcc/arm-none-eabi/4.7.4/../../../../arm-none-eabi/lib/armv7-m/libc.a(lib_a-strtoll_r.o)
                              /Users/imac/Develop/stm32f4/arm_gcc/gcc-arm-none-eabi-4_7-2013q3/bin/../lib/gcc/arm-none-eabi/4.7.4/../../../../arm-none-eabi/lib/armv7-m/libc.a(lib_a-svfscanf.o) (_strtoll_r)
/Users/imac/Develop/stm32f4/arm_gcc/gcc-arm-none-eabi-4_7-2013q3/bin/../lib/gcc/arm-none-eabi/4.7.4/../../../../arm-none-eabi/lib/armv7-m/libc.a(lib_a-strtoul.o)
                              /Users/imac/Develop/stm32f4/arm_gcc/gcc-arm-none-eabi-4_7-2013q3/bin/../lib/gcc/arm-none-eabi/4.7.4/../../../../arm-none-eabi/lib/armv7-m/libc.a(lib_a-svfscanf.o) (_strtoul_r)
/Users/imac/Develop/stm32f4/arm_gcc/gcc-arm-none-eabi-4_7-2013q3/bin/../lib/gcc/arm-none-eabi/4.7.4/../../../../arm-none-eabi/lib/armv7-m/libc.a(lib_a-strtoull_r.o)
                              /Users/imac/Develop/stm32f4/arm_gcc/gcc-arm-none-eabi-4_7-2013q3/bin/../lib/gcc/arm-none-eabi/4.7.4/../../../../arm-none-eabi/lib/armv7-m/libc.a(lib_a-svfscanf.o) (_strtoull_r)
/Users/imac/Develop/stm32f4/arm_gcc/gcc-arm-none-eabi-4_7-2013q3/bin/../lib/gcc/arm-none-eabi/4.7.4/../../../../arm-none-eabi/lib/armv7-m/libc.a(lib_a-svfiscanf.o)
                              /Users/imac/Develop/stm32f4/arm_gcc/gcc-arm-none-eabi-4_7-2013q3/bin/../lib/gcc/arm-none-eabi/4.7.4/../../../../arm-none-eabi/lib/armv7-m/libc.a(lib_a-svfscanf.o) (_sungetc_r)
/Users/imac/Develop/stm32f4/arm_gcc/gcc-arm-none-eabi-4_7-2013q3/bin/../lib/gcc/arm-none-eabi/4.7.4/../../../../arm-none-eabi/lib/armv7-m/libc.a(lib_a-svfprintf.o)
                              /Users/imac/Develop/stm32f4/arm_gcc/gcc-arm-none-eabi-4_7-2013q3/bin/../lib/gcc/arm-none-eabi/4.7.4/../../../../arm-none-eabi/lib/armv7-m/libc.a(lib_a-sprintf.o) (_svfprintf_r)
/Users/imac/Develop/stm32f4/arm_gcc/gcc-arm-none-eabi-4_7-2013q3/bin/../lib/gcc/arm-none-eabi/4.7.4/../../../../arm-none-eabi/lib/armv7-m/libc.a(lib_a-ungetc.o)
                              /Users/imac/Develop/stm32f4/arm_gcc/gcc-arm-none-eabi-4_7-2013q3/bin/../lib/gcc/arm-none-eabi/4.7.4/../../../../arm-none-eabi/lib/armv7-m/libc.a(lib_a-svfiscanf.o) (__submore)
/Users/imac/Develop/stm32f4/arm_gcc/gcc-arm-none-eabi-4_7-2013q3/bin/../lib/gcc/arm-none-eabi/4.7.4/../../../../arm-none-eabi/lib/armv7-m/libc.a(lib_a-dtoa.o)
                              /Users/imac/Develop/stm32f4/arm_gcc/gcc-arm-none-eabi-4_7-2013q3/bin/../lib/gcc/arm-none-eabi/4.7.4/../../../../arm-none-eabi/lib/armv7-m/libc.a(lib_a-svfprintf.o) (_dtoa_r)
/Users/imac/Develop/stm32f4/arm_gcc/gcc-arm-none-eabi-4_7-2013q3/bin/../lib/gcc/arm-none-eabi/4.7.4/../../../../arm-none-eabi/lib/armv7-m/libc.a(lib_a-fclose.o)
                              /Users/imac/Develop/stm32f4/arm_gcc/gcc-arm-none-eabi-4_7-2013q3/bin/../lib/gcc/arm-none-eabi/4.7.4/../../../../arm-none-eabi/lib/armv7-m/libc.a(lib_a-findfp.o) (fclose)
/Users/imac/Develop/stm32f4/arm_gcc/gcc-arm-none-eabi-4_7-2013q3/bin/../lib/gcc/arm-none-eabi/4.7.4/../../../../arm-none-eabi/lib/armv7-m/libc.a(lib_a-fflush.o)
                              /Users/imac/Develop/stm32f4/arm_gcc/gcc-arm-none-eabi-4_7-2013q3/bin/../lib/gcc/arm-none-eabi/4.7.4/../../../../arm-none-eabi/lib/armv7-m/libc.a(lib_a-ungetc.o) (_fflush_r)
/Users/imac/Develop/stm32f4/arm_gcc/gcc-arm-none-eabi-4_7-2013q3/bin/../lib/gcc/arm-none-eabi/4.7.4/../../../../arm-none-eabi/lib/armv7-m/libc.a(lib_a-freer.o)
                              /Users/imac/Develop/stm32f4/arm_gcc/gcc-arm-none-eabi-4_7-2013q3/bin/../lib/gcc/arm-none-eabi/4.7.4/../../../../arm-none-eabi/lib/armv7-m/libc.a(lib_a-mallocr.o) (_free_r)
/Users/imac/Develop/stm32f4/arm_gcc/gcc-arm-none-eabi-4_7-2013q3/bin/../lib/gcc/arm-none-eabi/4.7.4/../../../../arm-none-eabi/lib/armv7-m/libc.a(lib_a-gdtoa-gethex.o)
                              /Users/imac/Develop/stm32f4/arm_gcc/gcc-arm-none-eabi-4_7-2013q3/bin/../lib/gcc/arm-none-eabi/4.7.4/../../../../arm-none-eabi/lib/armv7-m/libc.a(lib_a-strtod.o) (__gethex)
/Users/imac/Develop/stm32f4/arm_gcc/gcc-arm-none-eabi-4_7-2013q3/bin/../lib/gcc/arm-none-eabi/4.7.4/../../../../arm-none-eabi/lib/armv7-m/libc.a(lib_a-gdtoa-hexnan.o)
                              /Users/imac/Develop/stm32f4/arm_gcc/gcc-arm-none-eabi-4_7-2013q3/bin/../lib/gcc/arm-none-eabi/4.7.4/../../../../arm-none-eabi/lib/armv7-m/libc.a(lib_a-strtod.o) (__hexnan)
/Users/imac/Develop/stm32f4/arm_gcc/gcc-arm-none-eabi-4_7-2013q3/bin/../lib/gcc/arm-none-eabi/4.7.4/../../../../arm-none-eabi/lib/armv7-m/libc.a(lib_a-memchr.o)
                              /Users/imac/Develop/stm32f4/arm_gcc/gcc-arm-none-eabi-4_7-2013q3/bin/../lib/gcc/arm-none-eabi/4.7.4/../../../../arm-none-eabi/lib/armv7-m/libc.a(lib_a-svfprintf.o) (memchr)
/Users/imac/Develop/stm32f4/arm_gcc/gcc-arm-none-eabi-4_7-2013q3/bin/../lib/gcc/arm-none-eabi/4.7.4/../../../../arm-none-eabi/lib/armv7-m/libc.a(lib_a-memcpy.o)
                              /Users/imac/Develop/stm32f4/arm_gcc/gcc-arm-none-eabi-4_7-2013q3/bin/../lib/gcc/arm-none-eabi/4.7.4/../../../../arm-none-eabi/lib/armv7-m/libc.a(lib_a-strtod.o) (memcpy)
/Users/imac/Develop/stm32f4/arm_gcc/gcc-arm-none-eabi-4_7-2013q3/bin/../lib/gcc/arm-none-eabi/4.7.4/../../../../arm-none-eabi/lib/armv7-m/libc.a(lib_a-mprec.o)
                              /Users/imac/Develop/stm32f4/arm_gcc/gcc-arm-none-eabi-4_7-2013q3/bin/../lib/gcc/arm-none-eabi/4.7.4/../../../../arm-none-eabi/lib/armv7-m/libc.a(lib_a-strtod.o) (_Balloc)
/Users/imac/Develop/stm32f4/arm_gcc/gcc-arm-none-eabi-4_7-2013q3/bin/../lib/gcc/arm-none-eabi/4.7.4/../../../../arm-none-eabi/lib/armv7-m/libc.a(lib_a-reallocr.o)
                              /Users/imac/Develop/stm32f4/arm_gcc/gcc-arm-none-eabi-4_7-2013q3/bin/../lib/gcc/arm-none-eabi/4.7.4/../../../../arm-none-eabi/lib/armv7-m/libc.a(lib_a-ungetc.o) (_realloc_r)
/Users/imac/Develop/stm32f4/arm_gcc/gcc-arm-none-eabi-4_7-2013q3/bin/../lib/gcc/arm-none-eabi/4.7.4/../../../../arm-none-eabi/lib/armv7-m/libc.a(lib_a-svfiprintf.o)
                              /Users/imac/Develop/stm32f4/arm_gcc/gcc-arm-none-eabi-4_7-2013q3/bin/../lib/gcc/arm-none-eabi/4.7.4/../../../../arm-none-eabi/lib/armv7-m/libc.a(lib_a-svfprintf.o) (__ssprint_r)
/Users/imac/Develop/stm32f4/arm_gcc/gcc-arm-none-eabi-4_7-2013q3/bin/../lib/gcc/arm-none-eabi/4.7.4/../../../../arm-none-eabi/lib/armv7-m/libc.a(lib_a-callocr.o)
                              /Users/imac/Develop/stm32f4/arm_gcc/gcc-arm-none-eabi-4_7-2013q3/bin/../lib/gcc/arm-none-eabi/4.7.4/../../../../arm-none-eabi/lib/armv7-m/libc.a(lib_a-mprec.o) (_calloc_r)
/Users/imac/Develop/stm32f4/arm_gcc/gcc-arm-none-eabi-4_7-2013q3/bin/../lib/gcc/arm-none-eabi/4.7.4/../../../../arm-none-eabi/lib/armv7-m/libc.a(lib_a-memmove.o)
                              /Users/imac/Develop/stm32f4/arm_gcc/gcc-arm-none-eabi-4_7-2013q3/bin/../lib/gcc/arm-none-eabi/4.7.4/../../../../arm-none-eabi/lib/armv7-m/libc.a(lib_a-reallocr.o) (memmove)
/Users/imac/Develop/stm32f4/arm_gcc/gcc-arm-none-eabi-4_7-2013q3/bin/../lib/gcc/arm-none-eabi/4.7.4/armv7-m/libgcc.a(_arm_addsubdf3.o)
                              /Users/imac/Develop/stm32f4/arm_gcc/gcc-arm-none-eabi-4_7-2013q3/bin/../lib/gcc/arm-none-eabi/4.7.4/../../../../arm-none-eabi/lib/armv7-m/libc.a(lib_a-strtod.o) (__aeabi_dsub)
/Users/imac/Develop/stm32f4/arm_gcc/gcc-arm-none-eabi-4_7-2013q3/bin/../lib/gcc/arm-none-eabi/4.7.4/armv7-m/libgcc.a(_arm_muldivdf3.o)
                              /Users/imac/Develop/stm32f4/arm_gcc/gcc-arm-none-eabi-4_7-2013q3/bin/../lib/gcc/arm-none-eabi/4.7.4/../../../../arm-none-eabi/lib/armv7-m/libc.a(lib_a-strtod.o) (__aeabi_dmul)
/Users/imac/Develop/stm32f4/arm_gcc/gcc-arm-none-eabi-4_7-2013q3/bin/../lib/gcc/arm-none-eabi/4.7.4/armv7-m/libgcc.a(_arm_cmpdf2.o)
                              /Users/imac/Develop/stm32f4/arm_gcc/gcc-arm-none-eabi-4_7-2013q3/bin/../lib/gcc/arm-none-eabi/4.7.4/../../../../arm-none-eabi/lib/armv7-m/libc.a(lib_a-strtod.o) (__aeabi_dcmpeq)
/Users/imac/Develop/stm32f4/arm_gcc/gcc-arm-none-eabi-4_7-2013q3/bin/../lib/gcc/arm-none-eabi/4.7.4/armv7-m/libgcc.a(_arm_fixdfsi.o)
                              /Users/imac/Develop/stm32f4/arm_gcc/gcc-arm-none-eabi-4_7-2013q3/bin/../lib/gcc/arm-none-eabi/4.7.4/../../../../arm-none-eabi/lib/armv7-m/libc.a(lib_a-strtod.o) (__aeabi_d2iz)
/Users/imac/Develop/stm32f4/arm_gcc/gcc-arm-none-eabi-4_7-2013q3/bin/../lib/gcc/arm-none-eabi/4.7.4/armv7-m/libgcc.a(_arm_fixunsdfsi.o)
                              /Users/imac/Develop/stm32f4/arm_gcc/gcc-arm-none-eabi-4_7-2013q3/bin/../lib/gcc/arm-none-eabi/4.7.4/../../../../arm-none-eabi/lib/armv7-m/libc.a(lib_a-strtod.o) (__aeabi_d2uiz)
/Users/imac/Develop/stm32f4/arm_gcc/gcc-arm-none-eabi-4_7-2013q3/bin/../lib/gcc/arm-none-eabi/4.7.4/armv7-m/libgcc.a(_arm_truncdfsf2.o)
                              /Users/imac/Develop/stm32f4/arm_gcc/gcc-arm-none-eabi-4_7-2013q3/bin/../lib/gcc/arm-none-eabi/4.7.4/../../../../arm-none-eabi/lib/armv7-m/libc.a(lib_a-svfscanf.o) (__aeabi_d2f)
/Users/imac/Develop/stm32f4/arm_gcc/gcc-arm-none-eabi-4_7-2013q3/bin/../lib/gcc/arm-none-eabi/4.7.4/armv7-m/libgcc.a(_aeabi_uldivmod.o)
                              /Users/imac/Develop/stm32f4/arm_gcc/gcc-arm-none-eabi-4_7-2013q3/bin/../lib/gcc/arm-none-eabi/4.7.4/../../../../arm-none-eabi/lib/armv7-m/libc.a(lib_a-strtoll_r.o) (__aeabi_uldivmod)
/Users/imac/Develop/stm32f4/arm_gcc/gcc-arm-none-eabi-4_7-2013q3/bin/../lib/gcc/arm-none-eabi/4.7.4/armv7-m/libgcc.a(bpabi.o)
                              /Users/imac/Develop/stm32f4/arm_gcc/gcc-arm-none-eabi-4_7-2013q3/bin/../lib/gcc/arm-none-eabi/4.7.4/armv7-m/libgcc.a(_aeabi_uldivmod.o) (__gnu_uldivmod_helper)
/Users/imac/Develop/stm32f4/arm_gcc/gcc-arm-none-eabi-4_7-2013q3/bin/../lib/gcc/arm-none-eabi/4.7.4/armv7-m/libgcc.a(_dvmd_tls.o)
                              /Users/imac/Develop/stm32f4/arm_gcc/gcc-arm-none-eabi-4_7-2013q3/bin/../lib/gcc/arm-none-eabi/4.7.4/armv7-m/libgcc.a(_aeabi_uldivmod.o) (__aeabi_ldiv0)
/Users/imac/Develop/stm32f4/arm_gcc/gcc-arm-none-eabi-4_7-2013q3/bin/../lib/gcc/arm-none-eabi/4.7.4/armv7-m/libgcc.a(_divdi3.o)
                              /Users/imac/Develop/stm32f4/arm_gcc/gcc-arm-none-eabi-4_7-2013q3/bin/../lib/gcc/arm-none-eabi/4.7.4/armv7-m/libgcc.a(bpabi.o) (__divdi3)
/Users/imac/Develop/stm32f4/arm_gcc/gcc-arm-none-eabi-4_7-2013q3/bin/../lib/gcc/arm-none-eabi/4.7.4/armv7-m/libgcc.a(_udivdi3.o)
                              /Users/imac/Develop/stm32f4/arm_gcc/gcc-arm-none-eabi-4_7-2013q3/bin/../lib/gcc/arm-none-eabi/4.7.4/armv7-m/libgcc.a(bpabi.o) (__udivdi3)

Allocating common symbols
Common symbol       size              file

Ap_StrCmd_Dic_Ptr   0x370             Ap_StrCmd.o
SaveRState          0x2               usb_int.o
Ap_StrCmd_CmdStrExe
                    0x3c              Ap_StrCmd.o
Hw_Si47xx_LastResp  0x10              Hw_Si47xx.o
Ap_StrCmd_ChSize    0x2               Ap_StrCmd.o
Hw_N5110G_TxFrameBuf
                    0x1f8             Hw_N5110G.o
Hw_7Seg_Data        0x4               Hw_7Seg.o
SaveState           0x2               usb_init.o
Hw_ISR_VectorTable  0x190             Hw_ISR.o
errno               0x4               /Users/imac/Develop/stm32f4/arm_gcc/gcc-arm-none-eabi-4_7-2013q3/bin/../lib/gcc/arm-none-eabi/4.7.4/../../../../arm-none-eabi/lib/armv7-m/libc.a(lib_a-reent.o)
Ap_StrCmd_CmdCheck  0x1               Ap_StrCmd.o
Ap_StrCmd_Q_Start   0x2               Ap_StrCmd_Q.o
Hw_VBus_AddrTbl     0x200             Hw_VBus.o
Hw_KeyPad_Data      0x4               Hw_KeyPad.o
Hw_KeyPad_EventList
                    0xc               Hw_KeyPad.o
Hw_Uart_Q_Buffer    0xe7              Hw_Uart_Q.o
Hw_N5110G_Frame_Index
                    0x2               Hw_N5110G.o
wIstr               0x2               usb_istr.o
pProperty           0x4               usb_init.o
__hexdig            0x100             /Users/imac/Develop/stm32f4/arm_gcc/gcc-arm-none-eabi-4_7-2013q3/bin/../lib/gcc/arm-none-eabi/4.7.4/../../../../arm-none-eabi/lib/armv7-m/libc.a(lib_a-gdtoa-gethex.o)
EPindex             0x1               usb_init.o
Hw_VCom_RxdFuncPtr  0x4               Hw_VCom.o
Hw_Sonic_Log        0x14              Hw_Sonic.o
Hw_Uart_Ch          0x48              Hw_Uart.o
Hw_KeyPad_Log       0xc0              Hw_KeyPad.o
Ap_StrCmd_Q_Buffer  0x168             Ap_StrCmd_Q.o
SaveTState          0x2               usb_int.o
Ap_StrCmd_CmdStr    0x3c              Ap_StrCmd.o
Ap_StrCmd_Q_End     0x2               Ap_StrCmd_Q.o
Device_Info         0x1c              usb_init.o
Ap_StrCmd_DlyCheck  0x1               Ap_StrCmd.o
pUser_Standard_Requests
                    0x4               usb_init.o
Ap_StrCmd_PrintPtr  0x4               Ap_StrCmd.o
Ap_StrCmd_Size      0x2               Ap_StrCmd.o
USB_Rx_Buffer       0x40              usb_endp.o
USART_Rx_Buffer     0x800             hw_config.o
StatusInfo          0x2               usb_core.o
pInformation        0x4               usb_init.o
ResumeS             0x2               usb_pwr.o
Hw_Uart_Q_Size      0xe               Hw_Uart_Q.o
Ap_Radio_Log        0x16              Ap_Radio.o
Hw_DcMotor_State    0xc               Hw_DcMotor.o
Ap_StrCmd_Q_Size    0x2               Ap_StrCmd_Q.o
Hw_N5110G_Frame_DrawReq
                    0x4               Hw_N5110G.o
Ap_StrCmd_PutchPtr  0x4               Ap_StrCmd.o
pStrPrintBuf        0x4               Lb_Printf.o
Hw_KeyPad_PressedList
                    0x10              Hw_KeyPad.o
Hw_Uart_Q_End       0xe               Hw_Uart_Q.o
EP                  0x20              usb_pwr.o
Hw_N5110G_RxFrameBuf
                    0x1f8             Hw_N5110G.o
wInterrupt_Mask     0x2               usb_init.o
Ap_StrCmd_LoopCheck
                    0x1               Ap_StrCmd.o
Hw_Uart_Q_Start     0xe               Hw_Uart_Q.o

Discarded input sections

 .text          0x0000000000000000        0x0 main.o
 .data          0x0000000000000000        0x0 main.o
 .bss           0x0000000000000000        0x0 main.o
 .text.Test_DCMOTOR
                0x0000000000000000       0xc4 main.o
 .bss.Pwm.4563  0x0000000000000000        0x2 main.o
 .text          0x0000000000000000        0x0 Ap.o
 .data          0x0000000000000000        0x0 Ap.o
 .bss           0x0000000000000000        0x0 Ap.o
 .text          0x0000000000000000        0x0 Ap_RadioMenu.o
 .data          0x0000000000000000        0x0 Ap_RadioMenu.o
 .bss           0x0000000000000000        0x0 Ap_RadioMenu.o
 .text.TimerDebug_Tick
                0x0000000000000000       0x18 Ap_RadioMenu.o
 .text.Ap_RadioMenu_ShowMenu
                0x0000000000000000       0xa4 Ap_RadioMenu.o
 .text.Ap_RadioMenu_GetCmd
                0x0000000000000000       0xb4 Ap_RadioMenu.o
 .text.Ap_RadioMenu_ExeCmd
                0x0000000000000000      0x394 Ap_RadioMenu.o
 .bss.AM_Freq_Index.4546
                0x0000000000000000        0x2 Ap_RadioMenu.o
 .rodata.str1.4
                0x0000000000000000      0x400 Ap_RadioMenu.o
 .bss.Band_Mode.4543
                0x0000000000000000        0x1 Ap_RadioMenu.o
 .rodata.AM_Freq.4547
                0x0000000000000000       0x14 Ap_RadioMenu.o
 .bss.FM_Freq_Index.4544
                0x0000000000000000        0x2 Ap_RadioMenu.o
 .rodata.FM_Freq.4545
                0x0000000000000000       0x38 Ap_RadioMenu.o
 .debug_info    0x0000000000000000      0x5f5 Ap_RadioMenu.o
 .debug_abbrev  0x0000000000000000      0x170 Ap_RadioMenu.o
 .debug_loc     0x0000000000000000      0x25e Ap_RadioMenu.o
 .debug_aranges
                0x0000000000000000       0x38 Ap_RadioMenu.o
 .debug_ranges  0x0000000000000000       0x28 Ap_RadioMenu.o
 .debug_line    0x0000000000000000      0x150 Ap_RadioMenu.o
 .debug_str     0x0000000000000000      0x1c6 Ap_RadioMenu.o
 .comment       0x0000000000000000       0x71 Ap_RadioMenu.o
 .ARM.attributes
                0x0000000000000000       0x33 Ap_RadioMenu.o
 .debug_frame   0x0000000000000000       0xa0 Ap_RadioMenu.o
 .text          0x0000000000000000        0x0 Ap_Radio.o
 .data          0x0000000000000000        0x0 Ap_Radio.o
 .bss           0x0000000000000000        0x0 Ap_Radio.o
 .text.Ap_Radio_ApiStart
                0x0000000000000000       0x10 Ap_Radio.o
 .text.Ap_Radio_BandSetFM
                0x0000000000000000       0x24 Ap_Radio.o
 .text.Ap_Radio_BandSetAM
                0x0000000000000000       0x24 Ap_Radio.o
 .text.Ap_Radio_BandGet
                0x0000000000000000       0x10 Ap_Radio.o
 .text.Ap_Radio_VolumeSet
                0x0000000000000000       0x34 Ap_Radio.o
 .text.Ap_Radio_VolumeGet
                0x0000000000000000       0x50 Ap_Radio.o
 .text.Ap_Radio_VolumeSetDown
                0x0000000000000000       0x38 Ap_Radio.o
 .text.Ap_Radio_VolumeSetUp
                0x0000000000000000       0x3c Ap_Radio.o
 .text.Ap_Radio_FM_ChannelSet
                0x0000000000000000       0x4c Ap_Radio.o
 .text.Ap_Radio_AM_ChannelSet
                0x0000000000000000       0x4c Ap_Radio.o
 .text.Ap_Radio_ChannelSet
                0x0000000000000000       0x2c Ap_Radio.o
 .text.Ap_Radio_FM_ChannelGet
                0x0000000000000000       0x38 Ap_Radio.o
 .text.Ap_Radio_AM_ChannelGet
                0x0000000000000000       0x38 Ap_Radio.o
 .text.Ap_Radio_ChannelGet
                0x0000000000000000       0x48 Ap_Radio.o
 .text.Ap_Radio_ChannelSetFirst
                0x0000000000000000       0x30 Ap_Radio.o
 .text.Ap_Radio_Init
                0x0000000000000000       0x4c Ap_Radio.o
 .text.Ap_Radio_ChannelSetLast
                0x0000000000000000       0x30 Ap_Radio.o
 .text.Ap_Radio_ChannelSetNext
                0x0000000000000000       0x28 Ap_Radio.o
 .text.Ap_Radio_ChannelSetPrev
                0x0000000000000000       0x28 Ap_Radio.o
 .text.Ap_Radio_MuteSetOn
                0x0000000000000000       0x24 Ap_Radio.o
 .text.Ap_Radio_MuteSetOff
                0x0000000000000000       0x24 Ap_Radio.o
 .text.Ap_Radio_SeekToFirst
                0x0000000000000000       0x8c Ap_Radio.o
 .text.Ap_Radio_SeekToLast
                0x0000000000000000       0x90 Ap_Radio.o
 .text.Ap_Radio_SeekFromFirst
                0x0000000000000000       0x54 Ap_Radio.o
 .text.Ap_Radio_SeekFromLast
                0x0000000000000000       0x54 Ap_Radio.o
 .debug_info    0x0000000000000000      0xb8e Ap_Radio.o
 .debug_abbrev  0x0000000000000000      0x262 Ap_Radio.o
 .debug_loc     0x0000000000000000      0xbee Ap_Radio.o
 .debug_aranges
                0x0000000000000000       0xe0 Ap_Radio.o
 .debug_ranges  0x0000000000000000      0x230 Ap_Radio.o
 .debug_line    0x0000000000000000      0x3f8 Ap_Radio.o
 .debug_str     0x0000000000000000      0x406 Ap_Radio.o
 .comment       0x0000000000000000       0x71 Ap_Radio.o
 .ARM.attributes
                0x0000000000000000       0x33 Ap_Radio.o
 .debug_frame   0x0000000000000000      0x2dc Ap_Radio.o
 COMMON         0x0000000000000000       0x16 Ap_Radio.o
 .text          0x0000000000000000        0x0 Ap_GLcdMenu.o
 .data          0x0000000000000000        0x0 Ap_GLcdMenu.o
 .bss           0x0000000000000000        0x0 Ap_GLcdMenu.o
 .text.Ap_GCldMenu_MoveCircleTick_2nd
                0x0000000000000000       0x74 Ap_GLcdMenu.o
 .text.Ap_GCldMenu_MoveCircleTick_1st
                0x0000000000000000       0x74 Ap_GLcdMenu.o
 .text.Ap_GLcdMenu_ShowMenu
                0x0000000000000000       0xa4 Ap_GLcdMenu.o
 .text.Ap_GLcdMenu_GetCmd
                0x0000000000000000       0x30 Ap_GLcdMenu.o
 .text.Ap_GLcdMenu_ExeCmd
                0x0000000000000000      0x204 Ap_GLcdMenu.o
 .bss.x.4520    0x0000000000000000        0x1 Ap_GLcdMenu.o
 .data.dir.4521
                0x0000000000000000        0x1 Ap_GLcdMenu.o
 .bss.cnt.4522  0x0000000000000000        0x1 Ap_GLcdMenu.o
 .bss.cnt.4530  0x0000000000000000        0x1 Ap_GLcdMenu.o
 .rodata.str1.4
                0x0000000000000000      0x318 Ap_GLcdMenu.o
 .bss.x.4528    0x0000000000000000        0x1 Ap_GLcdMenu.o
 .data.dir.4529
                0x0000000000000000        0x1 Ap_GLcdMenu.o
 .bss.Count.4549
                0x0000000000000000        0x1 Ap_GLcdMenu.o
 .debug_info    0x0000000000000000      0x573 Ap_GLcdMenu.o
 .debug_abbrev  0x0000000000000000      0x14f Ap_GLcdMenu.o
 .debug_loc     0x0000000000000000      0x114 Ap_GLcdMenu.o
 .debug_aranges
                0x0000000000000000       0x40 Ap_GLcdMenu.o
 .debug_ranges  0x0000000000000000       0x50 Ap_GLcdMenu.o
 .debug_line    0x0000000000000000      0x124 Ap_GLcdMenu.o
 .debug_str     0x0000000000000000      0x1ba Ap_GLcdMenu.o
 .comment       0x0000000000000000       0x71 Ap_GLcdMenu.o
 .ARM.attributes
                0x0000000000000000       0x33 Ap_GLcdMenu.o
 .debug_frame   0x0000000000000000       0xbc Ap_GLcdMenu.o
 .text          0x0000000000000000        0x0 Ap_EduMenu.o
 .data          0x0000000000000000        0x0 Ap_EduMenu.o
 .bss           0x0000000000000000        0x0 Ap_EduMenu.o
 .text.KeyPad_DownKeyEvent
                0x0000000000000000       0x2c Ap_EduMenu.o
 .text.KeyPad_UpKeyEvent
                0x0000000000000000       0x28 Ap_EduMenu.o
 .text.Ap_EduMenu_ShowMenu
                0x0000000000000000       0xa4 Ap_EduMenu.o
 .text.Ap_EduMenu_GetCmd
                0x0000000000000000       0x30 Ap_EduMenu.o
 .text.Ap_EduMenu_ExeCmd
                0x0000000000000000      0x320 Ap_EduMenu.o
 .rodata.str1.4
                0x0000000000000000      0x3ec Ap_EduMenu.o
 .bss.Seg_Count
                0x0000000000000000        0x2 Ap_EduMenu.o
 .debug_info    0x0000000000000000      0x6cf Ap_EduMenu.o
 .debug_abbrev  0x0000000000000000      0x1ad Ap_EduMenu.o
 .debug_loc     0x0000000000000000      0x1df Ap_EduMenu.o
 .debug_aranges
                0x0000000000000000       0x40 Ap_EduMenu.o
 .debug_ranges  0x0000000000000000       0x30 Ap_EduMenu.o
 .debug_line    0x0000000000000000      0x144 Ap_EduMenu.o
 .debug_str     0x0000000000000000      0x1b6 Ap_EduMenu.o
 .comment       0x0000000000000000       0x71 Ap_EduMenu.o
 .ARM.attributes
                0x0000000000000000       0x33 Ap_EduMenu.o
 .debug_frame   0x0000000000000000       0xbc Ap_EduMenu.o
 .text          0x0000000000000000        0x0 Ap_StrCmd.o
 .data          0x0000000000000000        0x0 Ap_StrCmd.o
 .bss           0x0000000000000000        0x0 Ap_StrCmd.o
 .text.Ap_StrCmd_SetFunc_Putch
                0x0000000000000000        0xc Ap_StrCmd.o
 .text.Ap_StrCmd_Putch
                0x0000000000000000       0x10 Ap_StrCmd.o
 .text.Ap_StrCmd_CmdClear
                0x0000000000000000       0x24 Ap_StrCmd.o
 .text.Ap_StrCmd_GetSize
                0x0000000000000000       0x10 Ap_StrCmd.o
 .text.Ap_StrCmd_Delay
                0x0000000000000000       0x10 Ap_StrCmd.o
 .text.Ap_StrCmd_Loop
                0x0000000000000000       0x18 Ap_StrCmd.o
 .text.Ap_StrCmd_StrLen
                0x0000000000000000       0x14 Ap_StrCmd.o
 .text.Ap_StrCmd_StrCopy
                0x0000000000000000       0x4c Ap_StrCmd.o
 .text          0x0000000000000000        0x0 Ap_StrCmd_Q.o
 .data          0x0000000000000000        0x0 Ap_StrCmd_Q.o
 .bss           0x0000000000000000        0x0 Ap_StrCmd_Q.o
 .text.Ap_StrCmd_Q_VAILD
                0x0000000000000000       0x38 Ap_StrCmd_Q.o
 .text.Ap_StrCmd_Q_PushReady
                0x0000000000000000       0x18 Ap_StrCmd_Q.o
 .text          0x0000000000000000        0x0 Ap_StrCmd_List.o
 .data          0x0000000000000000        0x0 Ap_StrCmd_List.o
 .bss           0x0000000000000000        0x0 Ap_StrCmd_List.o
 .text          0x0000000000000000        0x0 Ap_StrCmd_MOVE.o
 .data          0x0000000000000000        0x0 Ap_StrCmd_MOVE.o
 .bss           0x0000000000000000        0x0 Ap_StrCmd_MOVE.o
 .text          0x0000000000000000        0x0 Lb_Util.o
 .data          0x0000000000000000        0x0 Lb_Util.o
 .bss           0x0000000000000000        0x0 Lb_Util.o
 .text.delay    0x0000000000000000       0x14 Lb_Util.o
 .text.delay_second
                0x0000000000000000       0x14 Lb_Util.o
 .text          0x0000000000000000        0x0 Lb_Printf.o
 .data          0x0000000000000000        0x0 Lb_Printf.o
 .bss           0x0000000000000000        0x0 Lb_Printf.o
 .text.StrNCmp  0x0000000000000000       0x58 Lb_Printf.o
 .text.StrCmp   0x0000000000000000       0x3c Lb_Printf.o
 .text          0x0000000000000000        0x0 Hw_StartUp.o
 .data          0x0000000000000000        0x0 Hw_StartUp.o
 .bss           0x0000000000000000        0x0 Hw_StartUp.o
 .text          0x0000000000000000        0x0 Hw.o
 .data          0x0000000000000000        0x0 Hw.o
 .bss           0x0000000000000000        0x0 Hw.o
 .text.Hw_Wait  0x0000000000000000       0x1c Hw.o
 .text.Hw_Wait_Usec
                0x0000000000000000       0x24 Hw.o
 .text          0x0000000000000000        0x0 Hw_Uart.o
 .data          0x0000000000000000        0x0 Hw_Uart.o
 .bss           0x0000000000000000        0x0 Hw_Uart.o
 .text.Hw_Uart_Open
                0x0000000000000000       0x28 Hw_Uart.o
 .text.Hw_Uart_Getch
                0x0000000000000000       0x40 Hw_Uart.o
 .text.Hw_Uart_PrintEx
                0x0000000000000000       0x20 Hw_Uart.o
 .text.Hw_Uart_Print
                0x0000000000000000       0x30 Hw_Uart.o
 .text.Hw_Uart_GetchNoWait
                0x0000000000000000       0x20 Hw_Uart.o
 .text.get_byte
                0x0000000000000000       0x10 Hw_Uart.o
 .text          0x0000000000000000        0x0 Hw_PLL.o
 .data          0x0000000000000000        0x0 Hw_PLL.o
 .bss           0x0000000000000000        0x0 Hw_PLL.o
 .text          0x0000000000000000        0x0 Hw_Led.o
 .data          0x0000000000000000        0x0 Hw_Led.o
 .bss           0x0000000000000000        0x0 Hw_Led.o
 .text.Hw_Led_On
                0x0000000000000000       0x14 Hw_Led.o
 .text.Hw_Led_Off
                0x0000000000000000       0x14 Hw_Led.o
 .text.Hw_Led_Wait
                0x0000000000000000       0x1c Hw_Led.o
 .text          0x0000000000000000        0x0 Hw_Uart_Q.o
 .data          0x0000000000000000        0x0 Hw_Uart_Q.o
 .bss           0x0000000000000000        0x0 Hw_Uart_Q.o
 .text.HW_UART_Q_SIZE
                0x0000000000000000       0x30 Hw_Uart_Q.o
 .text.HW_UART_Q_VAILD
                0x0000000000000000       0x30 Hw_Uart_Q.o
 .text.Hw_Uart_Q_PushReady
                0x0000000000000000       0x18 Hw_Uart_Q.o
 .text.Hw_Uart_Q_Pop
                0x0000000000000000       0x78 Hw_Uart_Q.o
 .text          0x0000000000000000        0x0 Hw_ISR.o
 .data          0x0000000000000000        0x0 Hw_ISR.o
 .bss           0x0000000000000000        0x0 Hw_ISR.o
 .text          0x0000000000000000        0x0 Hw_Timer.o
 .data          0x0000000000000000        0x0 Hw_Timer.o
 .bss           0x0000000000000000        0x0 Hw_Timer.o
 .text.Hw_Timer_Setup
                0x0000000000000000       0x40 Hw_Timer.o
 .text.Hw_Timer_MeasureSetup
                0x0000000000000000       0x68 Hw_Timer.o
 .text.Hw_Timer_Stop
                0x0000000000000000       0x14 Hw_Timer.o
 .text.Hw_Timer_Reset
                0x0000000000000000       0x1c Hw_Timer.o
 .text.Hw_Timer_Delay_ms
                0x0000000000000000       0x14 Hw_Timer.o
 .text.Hw_Timer_Get_Handle
                0x0000000000000000       0x18 Hw_Timer.o
 .bss.Tmr_HandleIndex
                0x0000000000000000        0x2 Hw_Timer.o
 .text          0x0000000000000000        0x0 Hw_VCom.o
 .data          0x0000000000000000        0x0 Hw_VCom.o
 .bss           0x0000000000000000        0x0 Hw_VCom.o
 .text.Hw_VCom_Getch
                0x0000000000000000       0x30 Hw_VCom.o
 .text          0x0000000000000000        0x0 Hw_I2C.o
 .data          0x0000000000000000        0x0 Hw_I2C.o
 .bss           0x0000000000000000        0x0 Hw_I2C.o
 .text.Hw_I2C_Init
                0x0000000000000000       0x10 Hw_I2C.o
 .text.Hw_I2C_Write
                0x0000000000000000       0x10 Hw_I2C.o
 .text.Hw_I2C_Read
                0x0000000000000000       0x10 Hw_I2C.o
 .debug_info    0x0000000000000000      0x18e Hw_I2C.o
 .debug_abbrev  0x0000000000000000       0xe0 Hw_I2C.o
 .debug_loc     0x0000000000000000      0x168 Hw_I2C.o
 .debug_aranges
                0x0000000000000000       0x30 Hw_I2C.o
 .debug_ranges  0x0000000000000000       0x20 Hw_I2C.o
 .debug_line    0x0000000000000000       0x75 Hw_I2C.o
 .debug_str     0x0000000000000000      0x12a Hw_I2C.o
 .comment       0x0000000000000000       0x71 Hw_I2C.o
 .ARM.attributes
                0x0000000000000000       0x33 Hw_I2C.o
 .debug_frame   0x0000000000000000       0x64 Hw_I2C.o
 .text          0x0000000000000000        0x0 Hw_I2C_SW.o
 .data          0x0000000000000000        0x0 Hw_I2C_SW.o
 .bss           0x0000000000000000        0x0 Hw_I2C_SW.o
 .text.Hw_I2C_SW_SCL_HIGH
                0x0000000000000000       0x28 Hw_I2C_SW.o
 .text.Hw_I2C_SW_SCL_LOW
                0x0000000000000000       0x28 Hw_I2C_SW.o
 .text.Hw_I2C_SW_SDA_HIGH
                0x0000000000000000       0x14 Hw_I2C_SW.o
 .text.Hw_I2C_SW_IO_Setup
                0x0000000000000000       0x54 Hw_I2C_SW.o
 .text.Hw_I2C_SW_Init
                0x0000000000000000       0x10 Hw_I2C_SW.o
 .text.Hw_I2C_SW_SDA_LOW
                0x0000000000000000       0x14 Hw_I2C_SW.o
 .text.Hw_I2C_SW_WriteByte_NoAck
                0x0000000000000000       0xdc Hw_I2C_SW.o
 .text.Hw_I2C_SW_EndTransmit
                0x0000000000000000       0x38 Hw_I2C_SW.o
 .text.Hw_I2C_SW_StartTransmit
                0x0000000000000000       0x38 Hw_I2C_SW.o
 .text.Hw_I2C_SW_SDA
                0x0000000000000000       0x18 Hw_I2C_SW.o
 .text.Hw_I2C_SW_SetDir_SDA_Input
                0x0000000000000000       0x30 Hw_I2C_SW.o
 .text.Hw_I2C_SW_SetDir_SDA_Output
                0x0000000000000000       0x20 Hw_I2C_SW.o
 .text.Hw_I2C_SW_ReadByte_Ack
                0x0000000000000000      0x128 Hw_I2C_SW.o
 .text.Hw_I2C_SW_ReadByte_NoAck
                0x0000000000000000      0x128 Hw_I2C_SW.o
 .text.Hw_I2C_SW_WriteByte_Ack
                0x0000000000000000      0x100 Hw_I2C_SW.o
 .text.Hw_I2C_SW_Read
                0x0000000000000000      0x104 Hw_I2C_SW.o
 .text.Hw_I2C_SW_Write
                0x0000000000000000       0x94 Hw_I2C_SW.o
 .debug_info    0x0000000000000000     0x1062 Hw_I2C_SW.o
 .debug_abbrev  0x0000000000000000      0x236 Hw_I2C_SW.o
 .debug_loc     0x0000000000000000      0xb70 Hw_I2C_SW.o
 .debug_aranges
                0x0000000000000000       0xa0 Hw_I2C_SW.o
 .debug_ranges  0x0000000000000000       0x90 Hw_I2C_SW.o
 .debug_line    0x0000000000000000      0x390 Hw_I2C_SW.o
 .debug_str     0x0000000000000000      0x27d Hw_I2C_SW.o
 .comment       0x0000000000000000       0x71 Hw_I2C_SW.o
 .ARM.attributes
                0x0000000000000000       0x33 Hw_I2C_SW.o
 .debug_frame   0x0000000000000000      0x224 Hw_I2C_SW.o
 .text          0x0000000000000000        0x0 Hw_Si47xx.o
 .data          0x0000000000000000        0x0 Hw_Si47xx.o
 .bss           0x0000000000000000        0x0 Hw_Si47xx.o
 .text.Hw_Si47xx_Reset
                0x0000000000000000       0x40 Hw_Si47xx.o
 .text.Hw_Si47xx_Init
                0x0000000000000000       0x34 Hw_Si47xx.o
 .text.Hw_Si47xx_ReadResp
                0x0000000000000000       0x14 Hw_Si47xx.o
 .text.Hw_Si47xx_SendCommand
                0x0000000000000000       0x18 Hw_Si47xx.o
 .text.Hw_Si47xx_ReceiveResponse
                0x0000000000000000       0x84 Hw_Si47xx.o
 .text.Hw_Si47xx_POWER_UP
                0x0000000000000000       0x4c Hw_Si47xx.o
 .text.Hw_Si47xx_WaitForCTS
                0x0000000000000000       0x1c Hw_Si47xx.o
 .text.Hw_Si47xx_CommandResp
                0x0000000000000000       0x50 Hw_Si47xx.o
 .text.Hw_Si47xx_AM_TUNE_STATUS
                0x0000000000000000       0x2c Hw_Si47xx.o
 .text.Hw_Si47xx_FM_TUNE_STATUS
                0x0000000000000000       0x2c Hw_Si47xx.o
 .text.Hw_Si47xx_GET_INT_STATUS
                0x0000000000000000       0x30 Hw_Si47xx.o
 .text.Hw_Si47xx_WaitForSTC
                0x0000000000000000       0x34 Hw_Si47xx.o
 .text.Hw_Si47xx_AM_SEEK_START
                0x0000000000000000       0x30 Hw_Si47xx.o
 .text.Hw_Si47xx_FM_SEEK_START
                0x0000000000000000       0x30 Hw_Si47xx.o
 .text.Hw_Si47xx_AM_TUNE_FREQ
                0x0000000000000000       0x44 Hw_Si47xx.o
 .text.Hw_Si47xx_FM_TUNE_FREQ
                0x0000000000000000       0x40 Hw_Si47xx.o
 .text.Hw_Si47xx_GET_PROPERTY
                0x0000000000000000       0x48 Hw_Si47xx.o
 .text.Hw_Si47xx_SET_PROPERTY
                0x0000000000000000       0x50 Hw_Si47xx.o
 .text.Hw_Si47xx_AM_Config
                0x0000000000000000       0xa4 Hw_Si47xx.o
 .text.Hw_Si47xx_FM_Config
                0x0000000000000000       0xa4 Hw_Si47xx.o
 .debug_info    0x0000000000000000      0xf03 Hw_Si47xx.o
 .debug_abbrev  0x0000000000000000      0x2a1 Hw_Si47xx.o
 .debug_loc     0x0000000000000000      0x9c2 Hw_Si47xx.o
 .debug_aranges
                0x0000000000000000       0xb8 Hw_Si47xx.o
 .debug_ranges  0x0000000000000000       0xc0 Hw_Si47xx.o
 .debug_line    0x0000000000000000      0x2f5 Hw_Si47xx.o
 .debug_str     0x0000000000000000      0x364 Hw_Si47xx.o
 .comment       0x0000000000000000       0x71 Hw_Si47xx.o
 .ARM.attributes
                0x0000000000000000       0x33 Hw_Si47xx.o
 .debug_frame   0x0000000000000000      0x2b4 Hw_Si47xx.o
 COMMON         0x0000000000000000       0x10 Hw_Si47xx.o
 .text          0x0000000000000000        0x0 Hw_SPI.o
 .data          0x0000000000000000        0x0 Hw_SPI.o
 .bss           0x0000000000000000        0x0 Hw_SPI.o
 .text.Hw_SPI_Ch1_Init
                0x0000000000000000        0x4 Hw_SPI.o
 .text.Hw_SPI_Ch2_Init
                0x0000000000000000       0x74 Hw_SPI.o
 .text.Hw_SPI_Init
                0x0000000000000000       0x2c Hw_SPI.o
 .text.Hw_SPI_Enable
                0x0000000000000000       0x18 Hw_SPI.o
 .text.Hw_SPI_StartDMA
                0x0000000000000000       0x20 Hw_SPI.o
 .text.Hw_SPI_StopDMA
                0x0000000000000000       0x20 Hw_SPI.o
 .text.Hw_SPI_Disable
                0x0000000000000000        0x4 Hw_SPI.o
 .text.Hw_SPI_Write8Bit
                0x0000000000000000       0x70 Hw_SPI.o
 .text.Hw_SPI_Write16Bit
                0x0000000000000000       0x70 Hw_SPI.o
 .bss.Called.4435
                0x0000000000000000        0x1 Hw_SPI.o
 .debug_info    0x0000000000000000      0x278 Hw_SPI.o
 .debug_abbrev  0x0000000000000000      0x1b3 Hw_SPI.o
 .debug_loc     0x0000000000000000      0x1f7 Hw_SPI.o
 .debug_aranges
                0x0000000000000000       0x60 Hw_SPI.o
 .debug_ranges  0x0000000000000000       0x50 Hw_SPI.o
 .debug_line    0x0000000000000000      0x191 Hw_SPI.o
 .debug_str     0x0000000000000000      0x1a3 Hw_SPI.o
 .comment       0x0000000000000000       0x71 Hw_SPI.o
 .ARM.attributes
                0x0000000000000000       0x33 Hw_SPI.o
 .debug_frame   0x0000000000000000       0xac Hw_SPI.o
 .text          0x0000000000000000        0x0 Hw_N5110G.o
 .data          0x0000000000000000        0x0 Hw_N5110G.o
 .bss           0x0000000000000000        0x0 Hw_N5110G.o
 .text.Hw_N5100G_FrameTick
                0x0000000000000000       0x50 Hw_N5110G.o
 .text.Hw_N5110G_Reset
                0x0000000000000000       0x28 Hw_N5110G.o
 .text.Hw_N5110G_WriteCmd
                0x0000000000000000       0x2c Hw_N5110G.o
 .text.Hw_N5110G_WriteByte
                0x0000000000000000       0x3c Hw_N5110G.o
 .text.Hw_N5110G_Goto
                0x0000000000000000       0x20 Hw_N5110G.o
 .text.Hw_N5110G_Init
                0x0000000000000000       0xe4 Hw_N5110G.o
 .text.Hw_N5110G_WriteChar
                0x0000000000000000      0x114 Hw_N5110G.o
 .text.Hw_N5110G_Clear
                0x0000000000000000       0x28 Hw_N5110G.o
 .text.Hw_N5110G_WriteStr
                0x0000000000000000      0x128 Hw_N5110G.o
 .text.Hw_N5110G_Print
                0x0000000000000000       0x60 Hw_N5110G.o
 .text.Hw_N5110G_DrawRequest
                0x0000000000000000       0x10 Hw_N5110G.o
 .text.Hw_N5110G_SetPixel
                0x0000000000000000       0x24 Hw_N5110G.o
 .text.Hw_N5110G_ClrPixel
                0x0000000000000000       0x24 Hw_N5110G.o
 .text.Hw_N5110G_XorPixel
                0x0000000000000000       0x24 Hw_N5110G.o
 .text.Hw_N5110G_GetPixel
                0x0000000000000000       0x20 Hw_N5110G.o
 .text.Hw_N5110G_DrawClear
                0x0000000000000000       0x1c Hw_N5110G.o
 .text.Hw_N5110G_DrawClearRect
                0x0000000000000000       0xb4 Hw_N5110G.o
 .text.Hw_N5110G_DrawPrint
                0x0000000000000000       0x50 Hw_N5110G.o
 .text.Hw_N5110G_DrawCircle
                0x0000000000000000      0x3a4 Hw_N5110G.o
 .data.Hw_N5110G_Font6_8
                0x0000000000000000      0x228 Hw_N5110G.o
 .debug_info    0x0000000000000000     0x1257 Hw_N5110G.o
 .debug_abbrev  0x0000000000000000      0x3ae Hw_N5110G.o
 .debug_loc     0x0000000000000000     0x2aa4 Hw_N5110G.o
 .debug_aranges
                0x0000000000000000       0xb0 Hw_N5110G.o
 .debug_ranges  0x0000000000000000      0xbb0 Hw_N5110G.o
 .debug_line    0x0000000000000000      0x4e6 Hw_N5110G.o
 .debug_str     0x0000000000000000      0x352 Hw_N5110G.o
 .comment       0x0000000000000000       0x71 Hw_N5110G.o
 .ARM.attributes
                0x0000000000000000       0x33 Hw_N5110G.o
 .debug_frame   0x0000000000000000      0x24c Hw_N5110G.o
 COMMON         0x0000000000000000      0x3f8 Hw_N5110G.o
 .text          0x0000000000000000        0x0 Hw_DMA.o
 .data          0x0000000000000000        0x0 Hw_DMA.o
 .bss           0x0000000000000000        0x0 Hw_DMA.o
 .text.Hw_DMA_Init
                0x0000000000000000       0x24 Hw_DMA.o
 .text.Hw_DMA_SPI2_Setup
                0x0000000000000000       0x78 Hw_DMA.o
 .text.Hw_DMA_SPI2_IsTransFinished
                0x0000000000000000       0x28 Hw_DMA.o
 .bss.Called.4431
                0x0000000000000000        0x1 Hw_DMA.o
 .debug_info    0x0000000000000000      0x11a Hw_DMA.o
 .debug_abbrev  0x0000000000000000       0xb4 Hw_DMA.o
 .debug_loc     0x0000000000000000       0xb6 Hw_DMA.o
 .debug_aranges
                0x0000000000000000       0x30 Hw_DMA.o
 .debug_ranges  0x0000000000000000       0x20 Hw_DMA.o
 .debug_line    0x0000000000000000       0xa2 Hw_DMA.o
 .debug_str     0x0000000000000000      0x158 Hw_DMA.o
 .comment       0x0000000000000000       0x71 Hw_DMA.o
 .ARM.attributes
                0x0000000000000000       0x33 Hw_DMA.o
 .debug_frame   0x0000000000000000       0x54 Hw_DMA.o
 .text          0x0000000000000000        0x0 Hw_VBus.o
 .data          0x0000000000000000        0x0 Hw_VBus.o
 .bss           0x0000000000000000        0x0 Hw_VBus.o
 .text.Hw_VBus_SetDataPortOutput
                0x0000000000000000       0xac Hw_VBus.o
 .text.Hw_VBus_SetDataPortInput
                0x0000000000000000       0xac Hw_VBus.o
 .text.Hw_VBus_SetAddress
                0x0000000000000000       0x7c Hw_VBus.o
 .text.Hw_VBus_SetIdle
                0x0000000000000000       0x48 Hw_VBus.o
 .text.Hw_VBus_Init
                0x0000000000000000       0xec Hw_VBus.o
 .text.Hw_VBus_SetData
                0x0000000000000000       0x14 Hw_VBus.o
 .text.Hw_VBus_GetData
                0x0000000000000000       0x10 Hw_VBus.o
 .text.Hw_VBus_WriteData
                0x0000000000000000       0x5c Hw_VBus.o
 .text.Hw_VBus_ReadData
                0x0000000000000000       0x70 Hw_VBus.o
 .text.Hw_VBus_SetBit
                0x0000000000000000       0x28 Hw_VBus.o
 .text.Hw_VBus_ClrBit
                0x0000000000000000       0x2c Hw_VBus.o
 .text.Hw_VBus_TglBit
                0x0000000000000000       0x28 Hw_VBus.o
 .debug_info    0x0000000000000000      0x57f Hw_VBus.o
 .debug_abbrev  0x0000000000000000      0x22d Hw_VBus.o
 .debug_loc     0x0000000000000000      0x471 Hw_VBus.o
 .debug_aranges
                0x0000000000000000       0x78 Hw_VBus.o
 .debug_ranges  0x0000000000000000      0x138 Hw_VBus.o
 .debug_line    0x0000000000000000      0x210 Hw_VBus.o
 .debug_str     0x0000000000000000      0x215 Hw_VBus.o
 .comment       0x0000000000000000       0x71 Hw_VBus.o
 .ARM.attributes
                0x0000000000000000       0x33 Hw_VBus.o
 .debug_frame   0x0000000000000000      0x130 Hw_VBus.o
 COMMON         0x0000000000000000      0x200 Hw_VBus.o
 .text          0x0000000000000000        0x0 Hw_KeyPad.o
 .data          0x0000000000000000        0x0 Hw_KeyPad.o
 .bss           0x0000000000000000        0x0 Hw_KeyPad.o
 .text.Hw_KeyPad_StateTick
                0x0000000000000000      0x160 Hw_KeyPad.o
 .text.Hw_KeyPad_Init
                0x0000000000000000       0xd4 Hw_KeyPad.o
 .text.Hw_KeyPad_Scan
                0x0000000000000000       0x10 Hw_KeyPad.o
 .text.Hw_KeyPad_Tick
                0x0000000000000000       0x98 Hw_KeyPad.o
 .text.Hw_KeyPad_SetEventFunc
                0x0000000000000000       0x18 Hw_KeyPad.o
 .text.Hw_KeyPad_ReadCode
                0x0000000000000000        0xc Hw_KeyPad.o
 .text.Hw_KeyPad_GetRepeatCnt
                0x0000000000000000       0x1c Hw_KeyPad.o
 .text.Hw_KeyPad_GetPressedCnt
                0x0000000000000000        0xc Hw_KeyPad.o
 .text.Hw_KeyPad_GetPressedNum
                0x0000000000000000       0x14 Hw_KeyPad.o
 .text.Hw_KeyPad_WaitForEvent
                0x0000000000000000       0x38 Hw_KeyPad.o
 .text.Hw_KeyPad_GetEventKeyData
                0x0000000000000000       0x14 Hw_KeyPad.o
 .text.Hw_KeyPad_GetEventKeyNum
                0x0000000000000000       0x10 Hw_KeyPad.o
 .bss.Hw_KeyPad_EventFlag
                0x0000000000000000        0x4 Hw_KeyPad.o
 .bss.Hw_KeyPad_PressedCount
                0x0000000000000000        0x4 Hw_KeyPad.o
 .bss.Hw_KeyPad_EventKeyNum
                0x0000000000000000        0x4 Hw_KeyPad.o
 .debug_info    0x0000000000000000      0x634 Hw_KeyPad.o
 .debug_abbrev  0x0000000000000000      0x22f Hw_KeyPad.o
 .debug_loc     0x0000000000000000      0x64b Hw_KeyPad.o
 .debug_aranges
                0x0000000000000000       0x78 Hw_KeyPad.o
 .debug_ranges  0x0000000000000000       0x68 Hw_KeyPad.o
 .debug_line    0x0000000000000000      0x243 Hw_KeyPad.o
 .debug_str     0x0000000000000000      0x378 Hw_KeyPad.o
 .comment       0x0000000000000000       0x71 Hw_KeyPad.o
 .ARM.attributes
                0x0000000000000000       0x33 Hw_KeyPad.o
 .debug_frame   0x0000000000000000      0x134 Hw_KeyPad.o
 COMMON         0x0000000000000000       0xe0 Hw_KeyPad.o
 .text          0x0000000000000000        0x0 Hw_7Seg.o
 .data          0x0000000000000000        0x0 Hw_7Seg.o
 .bss           0x0000000000000000        0x0 Hw_7Seg.o
 .text.Hw_7Seg_Tick
                0x0000000000000000       0x3c Hw_7Seg.o
 .text.Hw_7Seg_Init
                0x0000000000000000       0x54 Hw_7Seg.o
 .text.Hw_7Seg_SetDot
                0x0000000000000000       0x20 Hw_7Seg.o
 .text.Hw_7Seg_SetNumber
                0x0000000000000000       0x8c Hw_7Seg.o
 .text.Hw_7Seg_Print
                0x0000000000000000       0xc8 Hw_7Seg.o
 .data.Hw_7Seg_DotTbl
                0x0000000000000000       0x10 Hw_7Seg.o
 .bss.Column_Cnt.4433
                0x0000000000000000        0x1 Hw_7Seg.o
 .debug_info    0x0000000000000000      0x357 Hw_7Seg.o
 .debug_abbrev  0x0000000000000000      0x1d2 Hw_7Seg.o
 .debug_loc     0x0000000000000000      0x30b Hw_7Seg.o
 .debug_aranges
                0x0000000000000000       0x40 Hw_7Seg.o
 .debug_ranges  0x0000000000000000       0x30 Hw_7Seg.o
 .debug_line    0x0000000000000000      0x136 Hw_7Seg.o
 .debug_str     0x0000000000000000      0x1a6 Hw_7Seg.o
 .comment       0x0000000000000000       0x71 Hw_7Seg.o
 .ARM.attributes
                0x0000000000000000       0x33 Hw_7Seg.o
 .debug_frame   0x0000000000000000       0xb0 Hw_7Seg.o
 COMMON         0x0000000000000000        0x4 Hw_7Seg.o
 .text          0x0000000000000000        0x0 Hw_CLcd.o
 .data          0x0000000000000000        0x0 Hw_CLcd.o
 .bss           0x0000000000000000        0x0 Hw_CLcd.o
 .text.Hw_CLcd_Delay
                0x0000000000000000       0x10 Hw_CLcd.o
 .text.Hw_CLcd_WriteCmd
                0x0000000000000000       0x44 Hw_CLcd.o
 .text.Hw_CLcd_WriteByte
                0x0000000000000000       0x44 Hw_CLcd.o
 .text.Hw_CLcd_Goto
                0x0000000000000000       0x1c Hw_CLcd.o
 .text.Hw_CLcd_WriteChar
                0x0000000000000000       0x10 Hw_CLcd.o
 .text.Hw_CLcd_Clear
                0x0000000000000000       0x20 Hw_CLcd.o
 .text.Hw_CLcd_WriteStr
                0x0000000000000000       0x28 Hw_CLcd.o
 .text.Hw_CLcd_Print
                0x0000000000000000       0x44 Hw_CLcd.o
 .text.Hw_CLcd_Init
                0x0000000000000000       0x78 Hw_CLcd.o
 .rodata.str1.4
                0x0000000000000000       0x18 Hw_CLcd.o
 .debug_info    0x0000000000000000      0x630 Hw_CLcd.o
 .debug_abbrev  0x0000000000000000      0x218 Hw_CLcd.o
 .debug_loc     0x0000000000000000      0x325 Hw_CLcd.o
 .debug_aranges
                0x0000000000000000       0x60 Hw_CLcd.o
 .debug_ranges  0x0000000000000000       0x70 Hw_CLcd.o
 .debug_line    0x0000000000000000      0x150 Hw_CLcd.o
 .debug_str     0x0000000000000000      0x1cf Hw_CLcd.o
 .comment       0x0000000000000000       0x71 Hw_CLcd.o
 .ARM.attributes
                0x0000000000000000       0x33 Hw_CLcd.o
 .debug_frame   0x0000000000000000      0x12c Hw_CLcd.o
 .text          0x0000000000000000        0x0 Hw_Adc.o
 .data          0x0000000000000000        0x0 Hw_Adc.o
 .bss           0x0000000000000000        0x0 Hw_Adc.o
 .text.Hw_Adc_PortInit
                0x0000000000000000       0x1c Hw_Adc.o
 .text.Hw_Adc_GetData
                0x0000000000000000       0x8c Hw_Adc.o
 .text.Hw_Adc_StartConv
                0x0000000000000000       0x60 Hw_Adc.o
 .text.Hw_Adc_GetConv
                0x0000000000000000       0x24 Hw_Adc.o
 .text          0x0000000000000000        0x0 Hw_Cds.o
 .data          0x0000000000000000        0x0 Hw_Cds.o
 .bss           0x0000000000000000        0x0 Hw_Cds.o
 .text.Hw_Cds_Init
                0x0000000000000000        0x4 Hw_Cds.o
 .text.Hw_Cds_GetData
                0x0000000000000000       0x2c Hw_Cds.o
 .debug_info    0x0000000000000000       0xcd Hw_Cds.o
 .debug_abbrev  0x0000000000000000       0x8f Hw_Cds.o
 .debug_loc     0x0000000000000000       0x53 Hw_Cds.o
 .debug_aranges
                0x0000000000000000       0x28 Hw_Cds.o
 .debug_ranges  0x0000000000000000       0x18 Hw_Cds.o
 .debug_line    0x0000000000000000       0x64 Hw_Cds.o
 .debug_str     0x0000000000000000      0x123 Hw_Cds.o
 .comment       0x0000000000000000       0x71 Hw_Cds.o
 .ARM.attributes
                0x0000000000000000       0x33 Hw_Cds.o
 .debug_frame   0x0000000000000000       0x3c Hw_Cds.o
 .text          0x0000000000000000        0x0 Hw_DcMotor.o
 .data          0x0000000000000000        0x0 Hw_DcMotor.o
 .bss           0x0000000000000000        0x0 Hw_DcMotor.o
 .text.Hw_DcMotor_SetPwm
                0x0000000000000000       0x10 Hw_DcMotor.o
 .text          0x0000000000000000        0x0 Hw_Pwm.o
 .data          0x0000000000000000        0x0 Hw_Pwm.o
 .bss           0x0000000000000000        0x0 Hw_Pwm.o
 .text.Hw_Pwm_SetDuty
                0x0000000000000000       0x20 Hw_Pwm.o
 .text          0x0000000000000000        0x0 Hw_Sonic.o
 .data          0x0000000000000000        0x0 Hw_Sonic.o
 .bss           0x0000000000000000        0x0 Hw_Sonic.o
 .text.Hw_Sonic_SetPortHIGH
                0x0000000000000000       0x2c Hw_Sonic.o
 .text.Hw_Sonic_GetPort
                0x0000000000000000       0x2c Hw_Sonic.o
 .text.Hw_Sonic_GetDistanceTime
                0x0000000000000000       0x14 Hw_Sonic.o
 .text          0x0000000000000000        0x0 usb_desc.o
 .data          0x0000000000000000        0x0 usb_desc.o
 .bss           0x0000000000000000        0x0 usb_desc.o
 .text          0x0000000000000000        0x0 usb_endp.o
 .data          0x0000000000000000        0x0 usb_endp.o
 .bss           0x0000000000000000        0x0 usb_endp.o
 .text          0x0000000000000000        0x0 usb_istr.o
 .data          0x0000000000000000        0x0 usb_istr.o
 .bss           0x0000000000000000        0x0 usb_istr.o
 .text          0x0000000000000000        0x0 usb_prop.o
 .data          0x0000000000000000        0x0 usb_prop.o
 .bss           0x0000000000000000        0x0 usb_prop.o
 .text          0x0000000000000000        0x0 usb_pwr.o
 .data          0x0000000000000000        0x0 usb_pwr.o
 .bss           0x0000000000000000        0x0 usb_pwr.o
 .text.PowerOff
                0x0000000000000000       0x30 usb_pwr.o
 .text          0x0000000000000000        0x0 hw_config.o
 .data          0x0000000000000000        0x0 hw_config.o
 .bss           0x0000000000000000        0x0 hw_config.o
 .text.Enter_LowPowerMode
                0x0000000000000000       0x10 hw_config.o
 .text.USART_To_USB_Send_Data
                0x0000000000000000        0x4 hw_config.o
 .text          0x0000000000000000        0x0 usb_core.o
 .data          0x0000000000000000        0x0 usb_core.o
 .bss           0x0000000000000000        0x0 usb_core.o
 .text.Standard_SetDeviceFeature
                0x0000000000000000       0x28 usb_core.o
 .text          0x0000000000000000        0x0 usb_init.o
 .data          0x0000000000000000        0x0 usb_init.o
 .bss           0x0000000000000000        0x0 usb_init.o
 .text          0x0000000000000000        0x0 usb_mem.o
 .data          0x0000000000000000        0x0 usb_mem.o
 .bss           0x0000000000000000        0x0 usb_mem.o
 .text          0x0000000000000000        0x0 usb_regs.o
 .data          0x0000000000000000        0x0 usb_regs.o
 .bss           0x0000000000000000        0x0 usb_regs.o
 .text.SetCNTR  0x0000000000000000        0xc usb_regs.o
 .text.GetCNTR  0x0000000000000000       0x10 usb_regs.o
 .text.SetISTR  0x0000000000000000        0xc usb_regs.o
 .text.GetISTR  0x0000000000000000       0x10 usb_regs.o
 .text.GetFNR   0x0000000000000000       0x10 usb_regs.o
 .text.SetDADDR
                0x0000000000000000        0xc usb_regs.o
 .text.GetDADDR
                0x0000000000000000       0x10 usb_regs.o
 .text.GetBTABLE
                0x0000000000000000       0x10 usb_regs.o
 .text.SetENDPOINT
                0x0000000000000000       0x10 usb_regs.o
 .text.GetENDPOINT
                0x0000000000000000       0x10 usb_regs.o
 .text.GetEPType
                0x0000000000000000       0x14 usb_regs.o
 .text.SetDouBleBuffEPStall
                0x0000000000000000       0x2c usb_regs.o
 .text.GetEPTxStatus
                0x0000000000000000       0x14 usb_regs.o
 .text.GetEPRxStatus
                0x0000000000000000       0x14 usb_regs.o
 .text.SetEP_KIND
                0x0000000000000000       0x20 usb_regs.o
 .text.ClearEP_KIND
                0x0000000000000000       0x20 usb_regs.o
 .text.Set_Status_Out
                0x0000000000000000       0x20 usb_regs.o
 .text.SetEPDoubleBuff
                0x0000000000000000       0x20 usb_regs.o
 .text.ClearEPDoubleBuff
                0x0000000000000000       0x20 usb_regs.o
 .text.GetTxStallStatus
                0x0000000000000000       0x1c usb_regs.o
 .text.GetRxStallStatus
                0x0000000000000000       0x1c usb_regs.o
 .text.ClearEP_CTR_RX
                0x0000000000000000       0x18 usb_regs.o
 .text.ClearEP_CTR_TX
                0x0000000000000000       0x18 usb_regs.o
 .text.ToggleDTOG_RX
                0x0000000000000000       0x20 usb_regs.o
 .text.ToggleDTOG_TX
                0x0000000000000000       0x20 usb_regs.o
 .text.SetEPAddress
                0x0000000000000000       0x20 usb_regs.o
 .text.GetEPAddress
                0x0000000000000000       0x14 usb_regs.o
 .text.SetEPCountRxReg
                0x0000000000000000       0x28 usb_regs.o
 .text.GetEPTxCount
                0x0000000000000000       0x24 usb_regs.o
 .text.SetEPDblBuffAddr
                0x0000000000000000       0x44 usb_regs.o
 .text.SetEPDblBuf0Addr
                0x0000000000000000       0x24 usb_regs.o
 .text.SetEPDblBuf1Addr
                0x0000000000000000       0x28 usb_regs.o
 .text.GetEPDblBuf0Addr
                0x0000000000000000       0x20 usb_regs.o
 .text.GetEPDblBuf1Addr
                0x0000000000000000       0x20 usb_regs.o
 .text.SetEPDblBuffCount
                0x0000000000000000       0xb4 usb_regs.o
 .text.SetEPDblBuf0Count
                0x0000000000000000       0x6c usb_regs.o
 .text.SetEPDblBuf1Count
                0x0000000000000000       0x6c usb_regs.o
 .text.GetEPDblBuf0Count
                0x0000000000000000       0x24 usb_regs.o
 .text.GetEPDblBuf1Count
                0x0000000000000000       0x24 usb_regs.o
 .text.GetEPDblBufDir
                0x0000000000000000       0x4c usb_regs.o
 .text.FreeUserBuffer
                0x0000000000000000       0x48 usb_regs.o
 .text.ToWord   0x0000000000000000        0x8 usb_regs.o
 .text          0x0000000000000000        0x0 usb_sil.o
 .data          0x0000000000000000        0x0 usb_sil.o
 .bss           0x0000000000000000        0x0 usb_sil.o
 .text.USB_SIL_Write
                0x0000000000000000       0x38 usb_sil.o
 .text          0x0000000000000000        0x0 usb_int.o
 .data          0x0000000000000000        0x0 usb_int.o
 .bss           0x0000000000000000        0x0 usb_int.o
 .text.CTR_HP   0x0000000000000000       0x88 usb_int.o
 .text          0x0000000000000000        0x0 /Users/imac/Develop/stm32f4/arm_gcc/gcc-arm-none-eabi-4_7-2013q3/bin/../lib/gcc/arm-none-eabi/4.7.4/../../../../arm-none-eabi/lib/armv7-m/libc.a(lib_a-ctype_.o)
 .data          0x0000000000000000        0x0 /Users/imac/Develop/stm32f4/arm_gcc/gcc-arm-none-eabi-4_7-2013q3/bin/../lib/gcc/arm-none-eabi/4.7.4/../../../../arm-none-eabi/lib/armv7-m/libc.a(lib_a-ctype_.o)
 .bss           0x0000000000000000        0x0 /Users/imac/Develop/stm32f4/arm_gcc/gcc-arm-none-eabi-4_7-2013q3/bin/../lib/gcc/arm-none-eabi/4.7.4/../../../../arm-none-eabi/lib/armv7-m/libc.a(lib_a-ctype_.o)
 .text          0x0000000000000000        0x0 /Users/imac/Develop/stm32f4/arm_gcc/gcc-arm-none-eabi-4_7-2013q3/bin/../lib/gcc/arm-none-eabi/4.7.4/../../../../arm-none-eabi/lib/armv7-m/libc.a(lib_a-errno.o)
 .data          0x0000000000000000        0x0 /Users/imac/Develop/stm32f4/arm_gcc/gcc-arm-none-eabi-4_7-2013q3/bin/../lib/gcc/arm-none-eabi/4.7.4/../../../../arm-none-eabi/lib/armv7-m/libc.a(lib_a-errno.o)
 .bss           0x0000000000000000        0x0 /Users/imac/Develop/stm32f4/arm_gcc/gcc-arm-none-eabi-4_7-2013q3/bin/../lib/gcc/arm-none-eabi/4.7.4/../../../../arm-none-eabi/lib/armv7-m/libc.a(lib_a-errno.o)
 .text          0x0000000000000000        0x0 /Users/imac/Develop/stm32f4/arm_gcc/gcc-arm-none-eabi-4_7-2013q3/bin/../lib/gcc/arm-none-eabi/4.7.4/../../../../arm-none-eabi/lib/armv7-m/libc.a(lib_a-impure.o)
 .data          0x0000000000000000        0x0 /Users/imac/Develop/stm32f4/arm_gcc/gcc-arm-none-eabi-4_7-2013q3/bin/../lib/gcc/arm-none-eabi/4.7.4/../../../../arm-none-eabi/lib/armv7-m/libc.a(lib_a-impure.o)
 .bss           0x0000000000000000        0x0 /Users/imac/Develop/stm32f4/arm_gcc/gcc-arm-none-eabi-4_7-2013q3/bin/../lib/gcc/arm-none-eabi/4.7.4/../../../../arm-none-eabi/lib/armv7-m/libc.a(lib_a-impure.o)
 .rodata._global_impure_ptr
                0x0000000000000000        0x4 /Users/imac/Develop/stm32f4/arm_gcc/gcc-arm-none-eabi-4_7-2013q3/bin/../lib/gcc/arm-none-eabi/4.7.4/../../../../arm-none-eabi/lib/armv7-m/libc.a(lib_a-impure.o)
 .text          0x0000000000000000        0x0 /Users/imac/Develop/stm32f4/arm_gcc/gcc-arm-none-eabi-4_7-2013q3/bin/../lib/gcc/arm-none-eabi/4.7.4/../../../../arm-none-eabi/lib/armv7-m/libc.a(lib_a-sscanf.o)
 .data          0x0000000000000000        0x0 /Users/imac/Develop/stm32f4/arm_gcc/gcc-arm-none-eabi-4_7-2013q3/bin/../lib/gcc/arm-none-eabi/4.7.4/../../../../arm-none-eabi/lib/armv7-m/libc.a(lib_a-sscanf.o)
 .bss           0x0000000000000000        0x0 /Users/imac/Develop/stm32f4/arm_gcc/gcc-arm-none-eabi-4_7-2013q3/bin/../lib/gcc/arm-none-eabi/4.7.4/../../../../arm-none-eabi/lib/armv7-m/libc.a(lib_a-sscanf.o)
 .text._sscanf_r
                0x0000000000000000       0x58 /Users/imac/Develop/stm32f4/arm_gcc/gcc-arm-none-eabi-4_7-2013q3/bin/../lib/gcc/arm-none-eabi/4.7.4/../../../../arm-none-eabi/lib/armv7-m/libc.a(lib_a-sscanf.o)
 .text          0x0000000000000000        0x0 /Users/imac/Develop/stm32f4/arm_gcc/gcc-arm-none-eabi-4_7-2013q3/bin/../lib/gcc/arm-none-eabi/4.7.4/../../../../arm-none-eabi/lib/armv7-m/libc.a(lib_a-stdio.o)
 .data          0x0000000000000000        0x0 /Users/imac/Develop/stm32f4/arm_gcc/gcc-arm-none-eabi-4_7-2013q3/bin/../lib/gcc/arm-none-eabi/4.7.4/../../../../arm-none-eabi/lib/armv7-m/libc.a(lib_a-stdio.o)
 .bss           0x0000000000000000        0x0 /Users/imac/Develop/stm32f4/arm_gcc/gcc-arm-none-eabi-4_7-2013q3/bin/../lib/gcc/arm-none-eabi/4.7.4/../../../../arm-none-eabi/lib/armv7-m/libc.a(lib_a-stdio.o)
 .text.__sread  0x0000000000000000       0x24 /Users/imac/Develop/stm32f4/arm_gcc/gcc-arm-none-eabi-4_7-2013q3/bin/../lib/gcc/arm-none-eabi/4.7.4/../../../../arm-none-eabi/lib/armv7-m/libc.a(lib_a-stdio.o)
 .text.__swrite
                0x0000000000000000       0x44 /Users/imac/Develop/stm32f4/arm_gcc/gcc-arm-none-eabi-4_7-2013q3/bin/../lib/gcc/arm-none-eabi/4.7.4/../../../../arm-none-eabi/lib/armv7-m/libc.a(lib_a-stdio.o)
 .text.__sseek  0x0000000000000000       0x24 /Users/imac/Develop/stm32f4/arm_gcc/gcc-arm-none-eabi-4_7-2013q3/bin/../lib/gcc/arm-none-eabi/4.7.4/../../../../arm-none-eabi/lib/armv7-m/libc.a(lib_a-stdio.o)
 .text.__sclose
                0x0000000000000000        0x8 /Users/imac/Develop/stm32f4/arm_gcc/gcc-arm-none-eabi-4_7-2013q3/bin/../lib/gcc/arm-none-eabi/4.7.4/../../../../arm-none-eabi/lib/armv7-m/libc.a(lib_a-stdio.o)
 .text          0x0000000000000000        0x0 /Users/imac/Develop/stm32f4/arm_gcc/gcc-arm-none-eabi-4_7-2013q3/bin/../lib/gcc/arm-none-eabi/4.7.4/../../../../arm-none-eabi/lib/armv7-m/libc.a(lib_a-strcmp.o)
 .data          0x0000000000000000        0x0 /Users/imac/Develop/stm32f4/arm_gcc/gcc-arm-none-eabi-4_7-2013q3/bin/../lib/gcc/arm-none-eabi/4.7.4/../../../../arm-none-eabi/lib/armv7-m/libc.a(lib_a-strcmp.o)
 .bss           0x0000000000000000        0x0 /Users/imac/Develop/stm32f4/arm_gcc/gcc-arm-none-eabi-4_7-2013q3/bin/../lib/gcc/arm-none-eabi/4.7.4/../../../../arm-none-eabi/lib/armv7-m/libc.a(lib_a-strcmp.o)
 .text          0x0000000000000000        0x0 /Users/imac/Develop/stm32f4/arm_gcc/gcc-arm-none-eabi-4_7-2013q3/bin/../lib/gcc/arm-none-eabi/4.7.4/../../../../arm-none-eabi/lib/armv7-m/libc.a(lib_a-strlen.o)
 .data          0x0000000000000000        0x0 /Users/imac/Develop/stm32f4/arm_gcc/gcc-arm-none-eabi-4_7-2013q3/bin/../lib/gcc/arm-none-eabi/4.7.4/../../../../arm-none-eabi/lib/armv7-m/libc.a(lib_a-strlen.o)
 .bss           0x0000000000000000        0x0 /Users/imac/Develop/stm32f4/arm_gcc/gcc-arm-none-eabi-4_7-2013q3/bin/../lib/gcc/arm-none-eabi/4.7.4/../../../../arm-none-eabi/lib/armv7-m/libc.a(lib_a-strlen.o)
 .text          0x0000000000000000        0x0 /Users/imac/Develop/stm32f4/arm_gcc/gcc-arm-none-eabi-4_7-2013q3/bin/../lib/gcc/arm-none-eabi/4.7.4/../../../../arm-none-eabi/lib/armv7-m/libc.a(lib_a-strncmp.o)
 .data          0x0000000000000000        0x0 /Users/imac/Develop/stm32f4/arm_gcc/gcc-arm-none-eabi-4_7-2013q3/bin/../lib/gcc/arm-none-eabi/4.7.4/../../../../arm-none-eabi/lib/armv7-m/libc.a(lib_a-strncmp.o)
 .bss           0x0000000000000000        0x0 /Users/imac/Develop/stm32f4/arm_gcc/gcc-arm-none-eabi-4_7-2013q3/bin/../lib/gcc/arm-none-eabi/4.7.4/../../../../arm-none-eabi/lib/armv7-m/libc.a(lib_a-strncmp.o)
 .text          0x0000000000000000        0x0 /Users/imac/Develop/stm32f4/arm_gcc/gcc-arm-none-eabi-4_7-2013q3/bin/../lib/gcc/arm-none-eabi/4.7.4/../../../../arm-none-eabi/lib/armv7-m/libc.a(lib_a-strtok.o)
 .data          0x0000000000000000        0x0 /Users/imac/Develop/stm32f4/arm_gcc/gcc-arm-none-eabi-4_7-2013q3/bin/../lib/gcc/arm-none-eabi/4.7.4/../../../../arm-none-eabi/lib/armv7-m/libc.a(lib_a-strtok.o)
 .bss           0x0000000000000000        0x0 /Users/imac/Develop/stm32f4/arm_gcc/gcc-arm-none-eabi-4_7-2013q3/bin/../lib/gcc/arm-none-eabi/4.7.4/../../../../arm-none-eabi/lib/armv7-m/libc.a(lib_a-strtok.o)
 .text          0x0000000000000000        0x0 /Users/imac/Develop/stm32f4/arm_gcc/gcc-arm-none-eabi-4_7-2013q3/bin/../lib/gcc/arm-none-eabi/4.7.4/../../../../arm-none-eabi/lib/armv7-m/libc.a(lib_a-strtok_r.o)
 .data          0x0000000000000000        0x0 /Users/imac/Develop/stm32f4/arm_gcc/gcc-arm-none-eabi-4_7-2013q3/bin/../lib/gcc/arm-none-eabi/4.7.4/../../../../arm-none-eabi/lib/armv7-m/libc.a(lib_a-strtok_r.o)
 .bss           0x0000000000000000        0x0 /Users/imac/Develop/stm32f4/arm_gcc/gcc-arm-none-eabi-4_7-2013q3/bin/../lib/gcc/arm-none-eabi/4.7.4/../../../../arm-none-eabi/lib/armv7-m/libc.a(lib_a-strtok_r.o)
 .text.strtok_r
                0x0000000000000000        0x8 /Users/imac/Develop/stm32f4/arm_gcc/gcc-arm-none-eabi-4_7-2013q3/bin/../lib/gcc/arm-none-eabi/4.7.4/../../../../arm-none-eabi/lib/armv7-m/libc.a(lib_a-strtok_r.o)
 .text          0x0000000000000000        0x0 /Users/imac/Develop/stm32f4/arm_gcc/gcc-arm-none-eabi-4_7-2013q3/bin/../lib/gcc/arm-none-eabi/4.7.4/../../../../arm-none-eabi/lib/armv7-m/libc.a(lib_a-svfscanf.o)
 .data          0x0000000000000000        0x0 /Users/imac/Develop/stm32f4/arm_gcc/gcc-arm-none-eabi-4_7-2013q3/bin/../lib/gcc/arm-none-eabi/4.7.4/../../../../arm-none-eabi/lib/armv7-m/libc.a(lib_a-svfscanf.o)
 .bss           0x0000000000000000        0x0 /Users/imac/Develop/stm32f4/arm_gcc/gcc-arm-none-eabi-4_7-2013q3/bin/../lib/gcc/arm-none-eabi/4.7.4/../../../../arm-none-eabi/lib/armv7-m/libc.a(lib_a-svfscanf.o)
 .text          0x0000000000000000        0x0 /Users/imac/Develop/stm32f4/arm_gcc/gcc-arm-none-eabi-4_7-2013q3/bin/../lib/gcc/arm-none-eabi/4.7.4/../../../../arm-none-eabi/lib/armv7-m/libc.a(lib_a-writer.o)
 .data          0x0000000000000000        0x0 /Users/imac/Develop/stm32f4/arm_gcc/gcc-arm-none-eabi-4_7-2013q3/bin/../lib/gcc/arm-none-eabi/4.7.4/../../../../arm-none-eabi/lib/armv7-m/libc.a(lib_a-writer.o)
 .bss           0x0000000000000000        0x0 /Users/imac/Develop/stm32f4/arm_gcc/gcc-arm-none-eabi-4_7-2013q3/bin/../lib/gcc/arm-none-eabi/4.7.4/../../../../arm-none-eabi/lib/armv7-m/libc.a(lib_a-writer.o)
 .text._write_r
                0x0000000000000000       0x28 /Users/imac/Develop/stm32f4/arm_gcc/gcc-arm-none-eabi-4_7-2013q3/bin/../lib/gcc/arm-none-eabi/4.7.4/../../../../arm-none-eabi/lib/armv7-m/libc.a(lib_a-writer.o)
 .ARM.attributes
                0x0000000000000000       0x2d /Users/imac/Develop/stm32f4/arm_gcc/gcc-arm-none-eabi-4_7-2013q3/bin/../lib/gcc/arm-none-eabi/4.7.4/../../../../arm-none-eabi/lib/armv7-m/libc.a(lib_a-writer.o)
 .debug_frame   0x0000000000000000       0x2c /Users/imac/Develop/stm32f4/arm_gcc/gcc-arm-none-eabi-4_7-2013q3/bin/../lib/gcc/arm-none-eabi/4.7.4/../../../../arm-none-eabi/lib/armv7-m/libc.a(lib_a-writer.o)
 .text          0x0000000000000000        0x0 /Users/imac/Develop/stm32f4/arm_gcc/gcc-arm-none-eabi-4_7-2013q3/bin/../lib/gcc/arm-none-eabi/4.7.4/../../../../arm-none-eabi/lib/armv7-m/libc.a(lib_a-closer.o)
 .data          0x0000000000000000        0x0 /Users/imac/Develop/stm32f4/arm_gcc/gcc-arm-none-eabi-4_7-2013q3/bin/../lib/gcc/arm-none-eabi/4.7.4/../../../../arm-none-eabi/lib/armv7-m/libc.a(lib_a-closer.o)
 .bss           0x0000000000000000        0x0 /Users/imac/Develop/stm32f4/arm_gcc/gcc-arm-none-eabi-4_7-2013q3/bin/../lib/gcc/arm-none-eabi/4.7.4/../../../../arm-none-eabi/lib/armv7-m/libc.a(lib_a-closer.o)
 .text._close_r
                0x0000000000000000       0x24 /Users/imac/Develop/stm32f4/arm_gcc/gcc-arm-none-eabi-4_7-2013q3/bin/../lib/gcc/arm-none-eabi/4.7.4/../../../../arm-none-eabi/lib/armv7-m/libc.a(lib_a-closer.o)
 .ARM.attributes
                0x0000000000000000       0x2d /Users/imac/Develop/stm32f4/arm_gcc/gcc-arm-none-eabi-4_7-2013q3/bin/../lib/gcc/arm-none-eabi/4.7.4/../../../../arm-none-eabi/lib/armv7-m/libc.a(lib_a-closer.o)
 .debug_frame   0x0000000000000000       0x2c /Users/imac/Develop/stm32f4/arm_gcc/gcc-arm-none-eabi-4_7-2013q3/bin/../lib/gcc/arm-none-eabi/4.7.4/../../../../arm-none-eabi/lib/armv7-m/libc.a(lib_a-closer.o)
 .text          0x0000000000000000        0x0 /Users/imac/Develop/stm32f4/arm_gcc/gcc-arm-none-eabi-4_7-2013q3/bin/../lib/gcc/arm-none-eabi/4.7.4/../../../../arm-none-eabi/lib/armv7-m/libc.a(lib_a-findfp.o)
 .data          0x0000000000000000        0x0 /Users/imac/Develop/stm32f4/arm_gcc/gcc-arm-none-eabi-4_7-2013q3/bin/../lib/gcc/arm-none-eabi/4.7.4/../../../../arm-none-eabi/lib/armv7-m/libc.a(lib_a-findfp.o)
 .bss           0x0000000000000000        0x0 /Users/imac/Develop/stm32f4/arm_gcc/gcc-arm-none-eabi-4_7-2013q3/bin/../lib/gcc/arm-none-eabi/4.7.4/../../../../arm-none-eabi/lib/armv7-m/libc.a(lib_a-findfp.o)
 .text.__fp_lock
                0x0000000000000000        0x4 /Users/imac/Develop/stm32f4/arm_gcc/gcc-arm-none-eabi-4_7-2013q3/bin/../lib/gcc/arm-none-eabi/4.7.4/../../../../arm-none-eabi/lib/armv7-m/libc.a(lib_a-findfp.o)
 .text.__fp_unlock
                0x0000000000000000        0x4 /Users/imac/Develop/stm32f4/arm_gcc/gcc-arm-none-eabi-4_7-2013q3/bin/../lib/gcc/arm-none-eabi/4.7.4/../../../../arm-none-eabi/lib/armv7-m/libc.a(lib_a-findfp.o)
 .text._cleanup_r
                0x0000000000000000        0xc /Users/imac/Develop/stm32f4/arm_gcc/gcc-arm-none-eabi-4_7-2013q3/bin/../lib/gcc/arm-none-eabi/4.7.4/../../../../arm-none-eabi/lib/armv7-m/libc.a(lib_a-findfp.o)
 .text.std.isra.0
                0x0000000000000000       0x50 /Users/imac/Develop/stm32f4/arm_gcc/gcc-arm-none-eabi-4_7-2013q3/bin/../lib/gcc/arm-none-eabi/4.7.4/../../../../arm-none-eabi/lib/armv7-m/libc.a(lib_a-findfp.o)
 .text.__sfmoreglue
                0x0000000000000000       0x2c /Users/imac/Develop/stm32f4/arm_gcc/gcc-arm-none-eabi-4_7-2013q3/bin/../lib/gcc/arm-none-eabi/4.7.4/../../../../arm-none-eabi/lib/armv7-m/libc.a(lib_a-findfp.o)
 .text._cleanup
                0x0000000000000000       0x10 /Users/imac/Develop/stm32f4/arm_gcc/gcc-arm-none-eabi-4_7-2013q3/bin/../lib/gcc/arm-none-eabi/4.7.4/../../../../arm-none-eabi/lib/armv7-m/libc.a(lib_a-findfp.o)
 .text.__sinit  0x0000000000000000       0x4c /Users/imac/Develop/stm32f4/arm_gcc/gcc-arm-none-eabi-4_7-2013q3/bin/../lib/gcc/arm-none-eabi/4.7.4/../../../../arm-none-eabi/lib/armv7-m/libc.a(lib_a-findfp.o)
 .text.__sfp    0x0000000000000000       0xa4 /Users/imac/Develop/stm32f4/arm_gcc/gcc-arm-none-eabi-4_7-2013q3/bin/../lib/gcc/arm-none-eabi/4.7.4/../../../../arm-none-eabi/lib/armv7-m/libc.a(lib_a-findfp.o)
 .text.__sinit_lock_acquire
                0x0000000000000000        0x4 /Users/imac/Develop/stm32f4/arm_gcc/gcc-arm-none-eabi-4_7-2013q3/bin/../lib/gcc/arm-none-eabi/4.7.4/../../../../arm-none-eabi/lib/armv7-m/libc.a(lib_a-findfp.o)
 .text.__sinit_lock_release
                0x0000000000000000        0x4 /Users/imac/Develop/stm32f4/arm_gcc/gcc-arm-none-eabi-4_7-2013q3/bin/../lib/gcc/arm-none-eabi/4.7.4/../../../../arm-none-eabi/lib/armv7-m/libc.a(lib_a-findfp.o)
 .text.__fp_lock_all
                0x0000000000000000       0x18 /Users/imac/Develop/stm32f4/arm_gcc/gcc-arm-none-eabi-4_7-2013q3/bin/../lib/gcc/arm-none-eabi/4.7.4/../../../../arm-none-eabi/lib/armv7-m/libc.a(lib_a-findfp.o)
 .text.__fp_unlock_all
                0x0000000000000000       0x18 /Users/imac/Develop/stm32f4/arm_gcc/gcc-arm-none-eabi-4_7-2013q3/bin/../lib/gcc/arm-none-eabi/4.7.4/../../../../arm-none-eabi/lib/armv7-m/libc.a(lib_a-findfp.o)
 .text          0x0000000000000000        0x0 /Users/imac/Develop/stm32f4/arm_gcc/gcc-arm-none-eabi-4_7-2013q3/bin/../lib/gcc/arm-none-eabi/4.7.4/../../../../arm-none-eabi/lib/armv7-m/libc.a(lib_a-fwalk.o)
 .data          0x0000000000000000        0x0 /Users/imac/Develop/stm32f4/arm_gcc/gcc-arm-none-eabi-4_7-2013q3/bin/../lib/gcc/arm-none-eabi/4.7.4/../../../../arm-none-eabi/lib/armv7-m/libc.a(lib_a-fwalk.o)
 .bss           0x0000000000000000        0x0 /Users/imac/Develop/stm32f4/arm_gcc/gcc-arm-none-eabi-4_7-2013q3/bin/../lib/gcc/arm-none-eabi/4.7.4/../../../../arm-none-eabi/lib/armv7-m/libc.a(lib_a-fwalk.o)
 .text._fwalk   0x0000000000000000       0xb8 /Users/imac/Develop/stm32f4/arm_gcc/gcc-arm-none-eabi-4_7-2013q3/bin/../lib/gcc/arm-none-eabi/4.7.4/../../../../arm-none-eabi/lib/armv7-m/libc.a(lib_a-fwalk.o)
 .text._fwalk_reent
                0x0000000000000000       0xc0 /Users/imac/Develop/stm32f4/arm_gcc/gcc-arm-none-eabi-4_7-2013q3/bin/../lib/gcc/arm-none-eabi/4.7.4/../../../../arm-none-eabi/lib/armv7-m/libc.a(lib_a-fwalk.o)
 .ARM.attributes
                0x0000000000000000       0x2d /Users/imac/Develop/stm32f4/arm_gcc/gcc-arm-none-eabi-4_7-2013q3/bin/../lib/gcc/arm-none-eabi/4.7.4/../../../../arm-none-eabi/lib/armv7-m/libc.a(lib_a-fwalk.o)
 .debug_frame   0x0000000000000000       0x5c /Users/imac/Develop/stm32f4/arm_gcc/gcc-arm-none-eabi-4_7-2013q3/bin/../lib/gcc/arm-none-eabi/4.7.4/../../../../arm-none-eabi/lib/armv7-m/libc.a(lib_a-fwalk.o)
 .text          0x0000000000000000        0x0 /Users/imac/Develop/stm32f4/arm_gcc/gcc-arm-none-eabi-4_7-2013q3/bin/../lib/gcc/arm-none-eabi/4.7.4/../../../../arm-none-eabi/lib/armv7-m/libc.a(lib_a-iswspace.o)
 .data          0x0000000000000000        0x0 /Users/imac/Develop/stm32f4/arm_gcc/gcc-arm-none-eabi-4_7-2013q3/bin/../lib/gcc/arm-none-eabi/4.7.4/../../../../arm-none-eabi/lib/armv7-m/libc.a(lib_a-iswspace.o)
 .bss           0x0000000000000000        0x0 /Users/imac/Develop/stm32f4/arm_gcc/gcc-arm-none-eabi-4_7-2013q3/bin/../lib/gcc/arm-none-eabi/4.7.4/../../../../arm-none-eabi/lib/armv7-m/libc.a(lib_a-iswspace.o)
 .text          0x0000000000000000        0x0 /Users/imac/Develop/stm32f4/arm_gcc/gcc-arm-none-eabi-4_7-2013q3/bin/../lib/gcc/arm-none-eabi/4.7.4/../../../../arm-none-eabi/lib/armv7-m/libc.a(lib_a-locale.o)
 .data          0x0000000000000000        0x0 /Users/imac/Develop/stm32f4/arm_gcc/gcc-arm-none-eabi-4_7-2013q3/bin/../lib/gcc/arm-none-eabi/4.7.4/../../../../arm-none-eabi/lib/armv7-m/libc.a(lib_a-locale.o)
 .bss           0x0000000000000000        0x0 /Users/imac/Develop/stm32f4/arm_gcc/gcc-arm-none-eabi-4_7-2013q3/bin/../lib/gcc/arm-none-eabi/4.7.4/../../../../arm-none-eabi/lib/armv7-m/libc.a(lib_a-locale.o)
 .text._setlocale_r
                0x0000000000000000       0x40 /Users/imac/Develop/stm32f4/arm_gcc/gcc-arm-none-eabi-4_7-2013q3/bin/../lib/gcc/arm-none-eabi/4.7.4/../../../../arm-none-eabi/lib/armv7-m/libc.a(lib_a-locale.o)
 .text.__locale_msgcharset
                0x0000000000000000        0xc /Users/imac/Develop/stm32f4/arm_gcc/gcc-arm-none-eabi-4_7-2013q3/bin/../lib/gcc/arm-none-eabi/4.7.4/../../../../arm-none-eabi/lib/armv7-m/libc.a(lib_a-locale.o)
 .text.__locale_cjk_lang
                0x0000000000000000        0x4 /Users/imac/Develop/stm32f4/arm_gcc/gcc-arm-none-eabi-4_7-2013q3/bin/../lib/gcc/arm-none-eabi/4.7.4/../../../../arm-none-eabi/lib/armv7-m/libc.a(lib_a-locale.o)
 .text.setlocale
                0x0000000000000000       0x18 /Users/imac/Develop/stm32f4/arm_gcc/gcc-arm-none-eabi-4_7-2013q3/bin/../lib/gcc/arm-none-eabi/4.7.4/../../../../arm-none-eabi/lib/armv7-m/libc.a(lib_a-locale.o)
 .text.localeconv
                0x0000000000000000        0xc /Users/imac/Develop/stm32f4/arm_gcc/gcc-arm-none-eabi-4_7-2013q3/bin/../lib/gcc/arm-none-eabi/4.7.4/../../../../arm-none-eabi/lib/armv7-m/libc.a(lib_a-locale.o)
 .data.lc_message_charset
                0x0000000000000000       0x20 /Users/imac/Develop/stm32f4/arm_gcc/gcc-arm-none-eabi-4_7-2013q3/bin/../lib/gcc/arm-none-eabi/4.7.4/../../../../arm-none-eabi/lib/armv7-m/libc.a(lib_a-locale.o)
 .bss._PathLocale
                0x0000000000000000        0x4 /Users/imac/Develop/stm32f4/arm_gcc/gcc-arm-none-eabi-4_7-2013q3/bin/../lib/gcc/arm-none-eabi/4.7.4/../../../../arm-none-eabi/lib/armv7-m/libc.a(lib_a-locale.o)
 .bss.__nlocale_changed
                0x0000000000000000        0x4 /Users/imac/Develop/stm32f4/arm_gcc/gcc-arm-none-eabi-4_7-2013q3/bin/../lib/gcc/arm-none-eabi/4.7.4/../../../../arm-none-eabi/lib/armv7-m/libc.a(lib_a-locale.o)
 .bss.__mlocale_changed
                0x0000000000000000        0x4 /Users/imac/Develop/stm32f4/arm_gcc/gcc-arm-none-eabi-4_7-2013q3/bin/../lib/gcc/arm-none-eabi/4.7.4/../../../../arm-none-eabi/lib/armv7-m/libc.a(lib_a-locale.o)
 .text          0x0000000000000000        0x0 /Users/imac/Develop/stm32f4/arm_gcc/gcc-arm-none-eabi-4_7-2013q3/bin/../lib/gcc/arm-none-eabi/4.7.4/../../../../arm-none-eabi/lib/armv7-m/libc.a(lib_a-lseekr.o)
 .data          0x0000000000000000        0x0 /Users/imac/Develop/stm32f4/arm_gcc/gcc-arm-none-eabi-4_7-2013q3/bin/../lib/gcc/arm-none-eabi/4.7.4/../../../../arm-none-eabi/lib/armv7-m/libc.a(lib_a-lseekr.o)
 .bss           0x0000000000000000        0x0 /Users/imac/Develop/stm32f4/arm_gcc/gcc-arm-none-eabi-4_7-2013q3/bin/../lib/gcc/arm-none-eabi/4.7.4/../../../../arm-none-eabi/lib/armv7-m/libc.a(lib_a-lseekr.o)
 .text._lseek_r
                0x0000000000000000       0x28 /Users/imac/Develop/stm32f4/arm_gcc/gcc-arm-none-eabi-4_7-2013q3/bin/../lib/gcc/arm-none-eabi/4.7.4/../../../../arm-none-eabi/lib/armv7-m/libc.a(lib_a-lseekr.o)
 .ARM.attributes
                0x0000000000000000       0x2d /Users/imac/Develop/stm32f4/arm_gcc/gcc-arm-none-eabi-4_7-2013q3/bin/../lib/gcc/arm-none-eabi/4.7.4/../../../../arm-none-eabi/lib/armv7-m/libc.a(lib_a-lseekr.o)
 .debug_frame   0x0000000000000000       0x2c /Users/imac/Develop/stm32f4/arm_gcc/gcc-arm-none-eabi-4_7-2013q3/bin/../lib/gcc/arm-none-eabi/4.7.4/../../../../arm-none-eabi/lib/armv7-m/libc.a(lib_a-lseekr.o)
 .text          0x0000000000000000        0x0 /Users/imac/Develop/stm32f4/arm_gcc/gcc-arm-none-eabi-4_7-2013q3/bin/../lib/gcc/arm-none-eabi/4.7.4/../../../../arm-none-eabi/lib/armv7-m/libc.a(lib_a-mallocr.o)
 .data          0x0000000000000000        0x0 /Users/imac/Develop/stm32f4/arm_gcc/gcc-arm-none-eabi-4_7-2013q3/bin/../lib/gcc/arm-none-eabi/4.7.4/../../../../arm-none-eabi/lib/armv7-m/libc.a(lib_a-mallocr.o)
 .bss           0x0000000000000000        0x0 /Users/imac/Develop/stm32f4/arm_gcc/gcc-arm-none-eabi-4_7-2013q3/bin/../lib/gcc/arm-none-eabi/4.7.4/../../../../arm-none-eabi/lib/armv7-m/libc.a(lib_a-mallocr.o)
 .text          0x0000000000000000        0x0 /Users/imac/Develop/stm32f4/arm_gcc/gcc-arm-none-eabi-4_7-2013q3/bin/../lib/gcc/arm-none-eabi/4.7.4/../../../../arm-none-eabi/lib/armv7-m/libc.a(lib_a-mbrtowc.o)
 .data          0x0000000000000000        0x0 /Users/imac/Develop/stm32f4/arm_gcc/gcc-arm-none-eabi-4_7-2013q3/bin/../lib/gcc/arm-none-eabi/4.7.4/../../../../arm-none-eabi/lib/armv7-m/libc.a(lib_a-mbrtowc.o)
 .bss           0x0000000000000000        0x0 /Users/imac/Develop/stm32f4/arm_gcc/gcc-arm-none-eabi-4_7-2013q3/bin/../lib/gcc/arm-none-eabi/4.7.4/../../../../arm-none-eabi/lib/armv7-m/libc.a(lib_a-mbrtowc.o)
 .text.mbrtowc  0x0000000000000000       0x68 /Users/imac/Develop/stm32f4/arm_gcc/gcc-arm-none-eabi-4_7-2013q3/bin/../lib/gcc/arm-none-eabi/4.7.4/../../../../arm-none-eabi/lib/armv7-m/libc.a(lib_a-mbrtowc.o)
 .text          0x0000000000000000        0x0 /Users/imac/Develop/stm32f4/arm_gcc/gcc-arm-none-eabi-4_7-2013q3/bin/../lib/gcc/arm-none-eabi/4.7.4/../../../../arm-none-eabi/lib/armv7-m/libc.a(lib_a-mbtowc_r.o)
 .data          0x0000000000000000        0x0 /Users/imac/Develop/stm32f4/arm_gcc/gcc-arm-none-eabi-4_7-2013q3/bin/../lib/gcc/arm-none-eabi/4.7.4/../../../../arm-none-eabi/lib/armv7-m/libc.a(lib_a-mbtowc_r.o)
 .bss           0x0000000000000000        0x0 /Users/imac/Develop/stm32f4/arm_gcc/gcc-arm-none-eabi-4_7-2013q3/bin/../lib/gcc/arm-none-eabi/4.7.4/../../../../arm-none-eabi/lib/armv7-m/libc.a(lib_a-mbtowc_r.o)
 .text._mbtowc_r
                0x0000000000000000       0x34 /Users/imac/Develop/stm32f4/arm_gcc/gcc-arm-none-eabi-4_7-2013q3/bin/../lib/gcc/arm-none-eabi/4.7.4/../../../../arm-none-eabi/lib/armv7-m/libc.a(lib_a-mbtowc_r.o)
 .text          0x0000000000000000        0x0 /Users/imac/Develop/stm32f4/arm_gcc/gcc-arm-none-eabi-4_7-2013q3/bin/../lib/gcc/arm-none-eabi/4.7.4/../../../../arm-none-eabi/lib/armv7-m/libc.a(lib_a-memset.o)
 .data          0x0000000000000000        0x0 /Users/imac/Develop/stm32f4/arm_gcc/gcc-arm-none-eabi-4_7-2013q3/bin/../lib/gcc/arm-none-eabi/4.7.4/../../../../arm-none-eabi/lib/armv7-m/libc.a(lib_a-memset.o)
 .bss           0x0000000000000000        0x0 /Users/imac/Develop/stm32f4/arm_gcc/gcc-arm-none-eabi-4_7-2013q3/bin/../lib/gcc/arm-none-eabi/4.7.4/../../../../arm-none-eabi/lib/armv7-m/libc.a(lib_a-memset.o)
 .text          0x0000000000000000        0x0 /Users/imac/Develop/stm32f4/arm_gcc/gcc-arm-none-eabi-4_7-2013q3/bin/../lib/gcc/arm-none-eabi/4.7.4/../../../../arm-none-eabi/lib/armv7-m/libc.a(lib_a-mlock.o)
 .data          0x0000000000000000        0x0 /Users/imac/Develop/stm32f4/arm_gcc/gcc-arm-none-eabi-4_7-2013q3/bin/../lib/gcc/arm-none-eabi/4.7.4/../../../../arm-none-eabi/lib/armv7-m/libc.a(lib_a-mlock.o)
 .bss           0x0000000000000000        0x0 /Users/imac/Develop/stm32f4/arm_gcc/gcc-arm-none-eabi-4_7-2013q3/bin/../lib/gcc/arm-none-eabi/4.7.4/../../../../arm-none-eabi/lib/armv7-m/libc.a(lib_a-mlock.o)
 .text          0x0000000000000000        0x0 /Users/imac/Develop/stm32f4/arm_gcc/gcc-arm-none-eabi-4_7-2013q3/bin/../lib/gcc/arm-none-eabi/4.7.4/../../../../arm-none-eabi/lib/armv7-m/libc.a(lib_a-readr.o)
 .data          0x0000000000000000        0x0 /Users/imac/Develop/stm32f4/arm_gcc/gcc-arm-none-eabi-4_7-2013q3/bin/../lib/gcc/arm-none-eabi/4.7.4/../../../../arm-none-eabi/lib/armv7-m/libc.a(lib_a-readr.o)
 .bss           0x0000000000000000        0x0 /Users/imac/Develop/stm32f4/arm_gcc/gcc-arm-none-eabi-4_7-2013q3/bin/../lib/gcc/arm-none-eabi/4.7.4/../../../../arm-none-eabi/lib/armv7-m/libc.a(lib_a-readr.o)
 .text._read_r  0x0000000000000000       0x28 /Users/imac/Develop/stm32f4/arm_gcc/gcc-arm-none-eabi-4_7-2013q3/bin/../lib/gcc/arm-none-eabi/4.7.4/../../../../arm-none-eabi/lib/armv7-m/libc.a(lib_a-readr.o)
 .ARM.attributes
                0x0000000000000000       0x2d /Users/imac/Develop/stm32f4/arm_gcc/gcc-arm-none-eabi-4_7-2013q3/bin/../lib/gcc/arm-none-eabi/4.7.4/../../../../arm-none-eabi/lib/armv7-m/libc.a(lib_a-readr.o)
 .debug_frame   0x0000000000000000       0x2c /Users/imac/Develop/stm32f4/arm_gcc/gcc-arm-none-eabi-4_7-2013q3/bin/../lib/gcc/arm-none-eabi/4.7.4/../../../../arm-none-eabi/lib/armv7-m/libc.a(lib_a-readr.o)
 .text          0x0000000000000000        0x0 /Users/imac/Develop/stm32f4/arm_gcc/gcc-arm-none-eabi-4_7-2013q3/bin/../lib/gcc/arm-none-eabi/4.7.4/../../../../arm-none-eabi/lib/armv7-m/libc.a(lib_a-reent.o)
 .data          0x0000000000000000        0x0 /Users/imac/Develop/stm32f4/arm_gcc/gcc-arm-none-eabi-4_7-2013q3/bin/../lib/gcc/arm-none-eabi/4.7.4/../../../../arm-none-eabi/lib/armv7-m/libc.a(lib_a-reent.o)
 .bss           0x0000000000000000        0x0 /Users/imac/Develop/stm32f4/arm_gcc/gcc-arm-none-eabi-4_7-2013q3/bin/../lib/gcc/arm-none-eabi/4.7.4/../../../../arm-none-eabi/lib/armv7-m/libc.a(lib_a-reent.o)
 .text.cleanup_glue
                0x0000000000000000       0x1c /Users/imac/Develop/stm32f4/arm_gcc/gcc-arm-none-eabi-4_7-2013q3/bin/../lib/gcc/arm-none-eabi/4.7.4/../../../../arm-none-eabi/lib/armv7-m/libc.a(lib_a-reent.o)
 .text._reclaim_reent
                0x0000000000000000       0x8c /Users/imac/Develop/stm32f4/arm_gcc/gcc-arm-none-eabi-4_7-2013q3/bin/../lib/gcc/arm-none-eabi/4.7.4/../../../../arm-none-eabi/lib/armv7-m/libc.a(lib_a-reent.o)
 .text._wrapup_reent
                0x0000000000000000       0x74 /Users/imac/Develop/stm32f4/arm_gcc/gcc-arm-none-eabi-4_7-2013q3/bin/../lib/gcc/arm-none-eabi/4.7.4/../../../../arm-none-eabi/lib/armv7-m/libc.a(lib_a-reent.o)
 .text          0x0000000000000000        0x0 /Users/imac/Develop/stm32f4/arm_gcc/gcc-arm-none-eabi-4_7-2013q3/bin/../lib/gcc/arm-none-eabi/4.7.4/../../../../arm-none-eabi/lib/armv7-m/libc.a(lib_a-s_fpclassify.o)
 .data          0x0000000000000000        0x0 /Users/imac/Develop/stm32f4/arm_gcc/gcc-arm-none-eabi-4_7-2013q3/bin/../lib/gcc/arm-none-eabi/4.7.4/../../../../arm-none-eabi/lib/armv7-m/libc.a(lib_a-s_fpclassify.o)
 .bss           0x0000000000000000        0x0 /Users/imac/Develop/stm32f4/arm_gcc/gcc-arm-none-eabi-4_7-2013q3/bin/../lib/gcc/arm-none-eabi/4.7.4/../../../../arm-none-eabi/lib/armv7-m/libc.a(lib_a-s_fpclassify.o)
 .text          0x0000000000000000        0x0 /Users/imac/Develop/stm32f4/arm_gcc/gcc-arm-none-eabi-4_7-2013q3/bin/../lib/gcc/arm-none-eabi/4.7.4/../../../../arm-none-eabi/lib/armv7-m/libc.a(lib_a-sbrkr.o)
 .data          0x0000000000000000        0x0 /Users/imac/Develop/stm32f4/arm_gcc/gcc-arm-none-eabi-4_7-2013q3/bin/../lib/gcc/arm-none-eabi/4.7.4/../../../../arm-none-eabi/lib/armv7-m/libc.a(lib_a-sbrkr.o)
 .bss           0x0000000000000000        0x0 /Users/imac/Develop/stm32f4/arm_gcc/gcc-arm-none-eabi-4_7-2013q3/bin/../lib/gcc/arm-none-eabi/4.7.4/../../../../arm-none-eabi/lib/armv7-m/libc.a(lib_a-sbrkr.o)
 .text          0x0000000000000000        0x0 /Users/imac/Develop/stm32f4/arm_gcc/gcc-arm-none-eabi-4_7-2013q3/bin/../lib/gcc/arm-none-eabi/4.7.4/../../../../arm-none-eabi/lib/armv7-m/libc.a(lib_a-sccl.o)
 .data          0x0000000000000000        0x0 /Users/imac/Develop/stm32f4/arm_gcc/gcc-arm-none-eabi-4_7-2013q3/bin/../lib/gcc/arm-none-eabi/4.7.4/../../../../arm-none-eabi/lib/armv7-m/libc.a(lib_a-sccl.o)
 .bss           0x0000000000000000        0x0 /Users/imac/Develop/stm32f4/arm_gcc/gcc-arm-none-eabi-4_7-2013q3/bin/../lib/gcc/arm-none-eabi/4.7.4/../../../../arm-none-eabi/lib/armv7-m/libc.a(lib_a-sccl.o)
 .text          0x0000000000000000        0x0 /Users/imac/Develop/stm32f4/arm_gcc/gcc-arm-none-eabi-4_7-2013q3/bin/../lib/gcc/arm-none-eabi/4.7.4/../../../../arm-none-eabi/lib/armv7-m/libc.a(lib_a-sf_nan.o)
 .data          0x0000000000000000        0x0 /Users/imac/Develop/stm32f4/arm_gcc/gcc-arm-none-eabi-4_7-2013q3/bin/../lib/gcc/arm-none-eabi/4.7.4/../../../../arm-none-eabi/lib/armv7-m/libc.a(lib_a-sf_nan.o)
 .bss           0x0000000000000000        0x0 /Users/imac/Develop/stm32f4/arm_gcc/gcc-arm-none-eabi-4_7-2013q3/bin/../lib/gcc/arm-none-eabi/4.7.4/../../../../arm-none-eabi/lib/armv7-m/libc.a(lib_a-sf_nan.o)
 .text          0x0000000000000000        0x0 /Users/imac/Develop/stm32f4/arm_gcc/gcc-arm-none-eabi-4_7-2013q3/bin/../lib/gcc/arm-none-eabi/4.7.4/../../../../arm-none-eabi/lib/armv7-m/libc.a(lib_a-sprintf.o)
 .data          0x0000000000000000        0x0 /Users/imac/Develop/stm32f4/arm_gcc/gcc-arm-none-eabi-4_7-2013q3/bin/../lib/gcc/arm-none-eabi/4.7.4/../../../../arm-none-eabi/lib/armv7-m/libc.a(lib_a-sprintf.o)
 .bss           0x0000000000000000        0x0 /Users/imac/Develop/stm32f4/arm_gcc/gcc-arm-none-eabi-4_7-2013q3/bin/../lib/gcc/arm-none-eabi/4.7.4/../../../../arm-none-eabi/lib/armv7-m/libc.a(lib_a-sprintf.o)
 .text._sprintf_r
                0x0000000000000000       0x44 /Users/imac/Develop/stm32f4/arm_gcc/gcc-arm-none-eabi-4_7-2013q3/bin/../lib/gcc/arm-none-eabi/4.7.4/../../../../arm-none-eabi/lib/armv7-m/libc.a(lib_a-sprintf.o)
 .text          0x0000000000000000        0x0 /Users/imac/Develop/stm32f4/arm_gcc/gcc-arm-none-eabi-4_7-2013q3/bin/../lib/gcc/arm-none-eabi/4.7.4/../../../../arm-none-eabi/lib/armv7-m/libc.a(lib_a-strtod.o)
 .data          0x0000000000000000        0x0 /Users/imac/Develop/stm32f4/arm_gcc/gcc-arm-none-eabi-4_7-2013q3/bin/../lib/gcc/arm-none-eabi/4.7.4/../../../../arm-none-eabi/lib/armv7-m/libc.a(lib_a-strtod.o)
 .bss           0x0000000000000000        0x0 /Users/imac/Develop/stm32f4/arm_gcc/gcc-arm-none-eabi-4_7-2013q3/bin/../lib/gcc/arm-none-eabi/4.7.4/../../../../arm-none-eabi/lib/armv7-m/libc.a(lib_a-strtod.o)
 .text.strtod   0x0000000000000000       0x18 /Users/imac/Develop/stm32f4/arm_gcc/gcc-arm-none-eabi-4_7-2013q3/bin/../lib/gcc/arm-none-eabi/4.7.4/../../../../arm-none-eabi/lib/armv7-m/libc.a(lib_a-strtod.o)
 .text.strtof   0x0000000000000000       0x30 /Users/imac/Develop/stm32f4/arm_gcc/gcc-arm-none-eabi-4_7-2013q3/bin/../lib/gcc/arm-none-eabi/4.7.4/../../../../arm-none-eabi/lib/armv7-m/libc.a(lib_a-strtod.o)
 .text          0x0000000000000000        0x0 /Users/imac/Develop/stm32f4/arm_gcc/gcc-arm-none-eabi-4_7-2013q3/bin/../lib/gcc/arm-none-eabi/4.7.4/../../../../arm-none-eabi/lib/armv7-m/libc.a(lib_a-strtol.o)
 .data          0x0000000000000000        0x0 /Users/imac/Develop/stm32f4/arm_gcc/gcc-arm-none-eabi-4_7-2013q3/bin/../lib/gcc/arm-none-eabi/4.7.4/../../../../arm-none-eabi/lib/armv7-m/libc.a(lib_a-strtol.o)
 .bss           0x0000000000000000        0x0 /Users/imac/Develop/stm32f4/arm_gcc/gcc-arm-none-eabi-4_7-2013q3/bin/../lib/gcc/arm-none-eabi/4.7.4/../../../../arm-none-eabi/lib/armv7-m/libc.a(lib_a-strtol.o)
 .text.strtol   0x0000000000000000       0x1c /Users/imac/Develop/stm32f4/arm_gcc/gcc-arm-none-eabi-4_7-2013q3/bin/../lib/gcc/arm-none-eabi/4.7.4/../../../../arm-none-eabi/lib/armv7-m/libc.a(lib_a-strtol.o)
 .text          0x0000000000000000        0x0 /Users/imac/Develop/stm32f4/arm_gcc/gcc-arm-none-eabi-4_7-2013q3/bin/../lib/gcc/arm-none-eabi/4.7.4/../../../../arm-none-eabi/lib/armv7-m/libc.a(lib_a-strtoll_r.o)
 .data          0x0000000000000000        0x0 /Users/imac/Develop/stm32f4/arm_gcc/gcc-arm-none-eabi-4_7-2013q3/bin/../lib/gcc/arm-none-eabi/4.7.4/../../../../arm-none-eabi/lib/armv7-m/libc.a(lib_a-strtoll_r.o)
 .bss           0x0000000000000000        0x0 /Users/imac/Develop/stm32f4/arm_gcc/gcc-arm-none-eabi-4_7-2013q3/bin/../lib/gcc/arm-none-eabi/4.7.4/../../../../arm-none-eabi/lib/armv7-m/libc.a(lib_a-strtoll_r.o)
 .text          0x0000000000000000        0x0 /Users/imac/Develop/stm32f4/arm_gcc/gcc-arm-none-eabi-4_7-2013q3/bin/../lib/gcc/arm-none-eabi/4.7.4/../../../../arm-none-eabi/lib/armv7-m/libc.a(lib_a-strtoul.o)
 .data          0x0000000000000000        0x0 /Users/imac/Develop/stm32f4/arm_gcc/gcc-arm-none-eabi-4_7-2013q3/bin/../lib/gcc/arm-none-eabi/4.7.4/../../../../arm-none-eabi/lib/armv7-m/libc.a(lib_a-strtoul.o)
 .bss           0x0000000000000000        0x0 /Users/imac/Develop/stm32f4/arm_gcc/gcc-arm-none-eabi-4_7-2013q3/bin/../lib/gcc/arm-none-eabi/4.7.4/../../../../arm-none-eabi/lib/armv7-m/libc.a(lib_a-strtoul.o)
 .text.strtoul  0x0000000000000000       0x1c /Users/imac/Develop/stm32f4/arm_gcc/gcc-arm-none-eabi-4_7-2013q3/bin/../lib/gcc/arm-none-eabi/4.7.4/../../../../arm-none-eabi/lib/armv7-m/libc.a(lib_a-strtoul.o)
 .text          0x0000000000000000        0x0 /Users/imac/Develop/stm32f4/arm_gcc/gcc-arm-none-eabi-4_7-2013q3/bin/../lib/gcc/arm-none-eabi/4.7.4/../../../../arm-none-eabi/lib/armv7-m/libc.a(lib_a-strtoull_r.o)
 .data          0x0000000000000000        0x0 /Users/imac/Develop/stm32f4/arm_gcc/gcc-arm-none-eabi-4_7-2013q3/bin/../lib/gcc/arm-none-eabi/4.7.4/../../../../arm-none-eabi/lib/armv7-m/libc.a(lib_a-strtoull_r.o)
 .bss           0x0000000000000000        0x0 /Users/imac/Develop/stm32f4/arm_gcc/gcc-arm-none-eabi-4_7-2013q3/bin/../lib/gcc/arm-none-eabi/4.7.4/../../../../arm-none-eabi/lib/armv7-m/libc.a(lib_a-strtoull_r.o)
 .text          0x0000000000000000        0x0 /Users/imac/Develop/stm32f4/arm_gcc/gcc-arm-none-eabi-4_7-2013q3/bin/../lib/gcc/arm-none-eabi/4.7.4/../../../../arm-none-eabi/lib/armv7-m/libc.a(lib_a-svfiscanf.o)
 .data          0x0000000000000000        0x0 /Users/imac/Develop/stm32f4/arm_gcc/gcc-arm-none-eabi-4_7-2013q3/bin/../lib/gcc/arm-none-eabi/4.7.4/../../../../arm-none-eabi/lib/armv7-m/libc.a(lib_a-svfiscanf.o)
 .bss           0x0000000000000000        0x0 /Users/imac/Develop/stm32f4/arm_gcc/gcc-arm-none-eabi-4_7-2013q3/bin/../lib/gcc/arm-none-eabi/4.7.4/../../../../arm-none-eabi/lib/armv7-m/libc.a(lib_a-svfiscanf.o)
 .text.__ssvfiscanf_r
                0x0000000000000000      0xc48 /Users/imac/Develop/stm32f4/arm_gcc/gcc-arm-none-eabi-4_7-2013q3/bin/../lib/gcc/arm-none-eabi/4.7.4/../../../../arm-none-eabi/lib/armv7-m/libc.a(lib_a-svfiscanf.o)
 .rodata.basefix.6137
                0x0000000000000000       0x24 /Users/imac/Develop/stm32f4/arm_gcc/gcc-arm-none-eabi-4_7-2013q3/bin/../lib/gcc/arm-none-eabi/4.7.4/../../../../arm-none-eabi/lib/armv7-m/libc.a(lib_a-svfiscanf.o)
 .text          0x0000000000000000        0x0 /Users/imac/Develop/stm32f4/arm_gcc/gcc-arm-none-eabi-4_7-2013q3/bin/../lib/gcc/arm-none-eabi/4.7.4/../../../../arm-none-eabi/lib/armv7-m/libc.a(lib_a-svfprintf.o)
 .data          0x0000000000000000        0x0 /Users/imac/Develop/stm32f4/arm_gcc/gcc-arm-none-eabi-4_7-2013q3/bin/../lib/gcc/arm-none-eabi/4.7.4/../../../../arm-none-eabi/lib/armv7-m/libc.a(lib_a-svfprintf.o)
 .bss           0x0000000000000000        0x0 /Users/imac/Develop/stm32f4/arm_gcc/gcc-arm-none-eabi-4_7-2013q3/bin/../lib/gcc/arm-none-eabi/4.7.4/../../../../arm-none-eabi/lib/armv7-m/libc.a(lib_a-svfprintf.o)
 .text          0x0000000000000000        0x0 /Users/imac/Develop/stm32f4/arm_gcc/gcc-arm-none-eabi-4_7-2013q3/bin/../lib/gcc/arm-none-eabi/4.7.4/../../../../arm-none-eabi/lib/armv7-m/libc.a(lib_a-ungetc.o)
 .data          0x0000000000000000        0x0 /Users/imac/Develop/stm32f4/arm_gcc/gcc-arm-none-eabi-4_7-2013q3/bin/../lib/gcc/arm-none-eabi/4.7.4/../../../../arm-none-eabi/lib/armv7-m/libc.a(lib_a-ungetc.o)
 .bss           0x0000000000000000        0x0 /Users/imac/Develop/stm32f4/arm_gcc/gcc-arm-none-eabi-4_7-2013q3/bin/../lib/gcc/arm-none-eabi/4.7.4/../../../../arm-none-eabi/lib/armv7-m/libc.a(lib_a-ungetc.o)
 .text._ungetc_r
                0x0000000000000000       0xe8 /Users/imac/Develop/stm32f4/arm_gcc/gcc-arm-none-eabi-4_7-2013q3/bin/../lib/gcc/arm-none-eabi/4.7.4/../../../../arm-none-eabi/lib/armv7-m/libc.a(lib_a-ungetc.o)
 .text.ungetc   0x0000000000000000       0x18 /Users/imac/Develop/stm32f4/arm_gcc/gcc-arm-none-eabi-4_7-2013q3/bin/../lib/gcc/arm-none-eabi/4.7.4/../../../../arm-none-eabi/lib/armv7-m/libc.a(lib_a-ungetc.o)
 .text          0x0000000000000000        0x0 /Users/imac/Develop/stm32f4/arm_gcc/gcc-arm-none-eabi-4_7-2013q3/bin/../lib/gcc/arm-none-eabi/4.7.4/../../../../arm-none-eabi/lib/armv7-m/libc.a(lib_a-dtoa.o)
 .data          0x0000000000000000        0x0 /Users/imac/Develop/stm32f4/arm_gcc/gcc-arm-none-eabi-4_7-2013q3/bin/../lib/gcc/arm-none-eabi/4.7.4/../../../../arm-none-eabi/lib/armv7-m/libc.a(lib_a-dtoa.o)
 .bss           0x0000000000000000        0x0 /Users/imac/Develop/stm32f4/arm_gcc/gcc-arm-none-eabi-4_7-2013q3/bin/../lib/gcc/arm-none-eabi/4.7.4/../../../../arm-none-eabi/lib/armv7-m/libc.a(lib_a-dtoa.o)
 .text          0x0000000000000000        0x0 /Users/imac/Develop/stm32f4/arm_gcc/gcc-arm-none-eabi-4_7-2013q3/bin/../lib/gcc/arm-none-eabi/4.7.4/../../../../arm-none-eabi/lib/armv7-m/libc.a(lib_a-fclose.o)
 .data          0x0000000000000000        0x0 /Users/imac/Develop/stm32f4/arm_gcc/gcc-arm-none-eabi-4_7-2013q3/bin/../lib/gcc/arm-none-eabi/4.7.4/../../../../arm-none-eabi/lib/armv7-m/libc.a(lib_a-fclose.o)
 .bss           0x0000000000000000        0x0 /Users/imac/Develop/stm32f4/arm_gcc/gcc-arm-none-eabi-4_7-2013q3/bin/../lib/gcc/arm-none-eabi/4.7.4/../../../../arm-none-eabi/lib/armv7-m/libc.a(lib_a-fclose.o)
 .text._fclose_r
                0x0000000000000000       0x94 /Users/imac/Develop/stm32f4/arm_gcc/gcc-arm-none-eabi-4_7-2013q3/bin/../lib/gcc/arm-none-eabi/4.7.4/../../../../arm-none-eabi/lib/armv7-m/libc.a(lib_a-fclose.o)
 .text.fclose   0x0000000000000000       0x10 /Users/imac/Develop/stm32f4/arm_gcc/gcc-arm-none-eabi-4_7-2013q3/bin/../lib/gcc/arm-none-eabi/4.7.4/../../../../arm-none-eabi/lib/armv7-m/libc.a(lib_a-fclose.o)
 .ARM.attributes
                0x0000000000000000       0x2d /Users/imac/Develop/stm32f4/arm_gcc/gcc-arm-none-eabi-4_7-2013q3/bin/../lib/gcc/arm-none-eabi/4.7.4/../../../../arm-none-eabi/lib/armv7-m/libc.a(lib_a-fclose.o)
 .debug_frame   0x0000000000000000       0x3c /Users/imac/Develop/stm32f4/arm_gcc/gcc-arm-none-eabi-4_7-2013q3/bin/../lib/gcc/arm-none-eabi/4.7.4/../../../../arm-none-eabi/lib/armv7-m/libc.a(lib_a-fclose.o)
 .text          0x0000000000000000        0x0 /Users/imac/Develop/stm32f4/arm_gcc/gcc-arm-none-eabi-4_7-2013q3/bin/../lib/gcc/arm-none-eabi/4.7.4/../../../../arm-none-eabi/lib/armv7-m/libc.a(lib_a-fflush.o)
 .data          0x0000000000000000        0x0 /Users/imac/Develop/stm32f4/arm_gcc/gcc-arm-none-eabi-4_7-2013q3/bin/../lib/gcc/arm-none-eabi/4.7.4/../../../../arm-none-eabi/lib/armv7-m/libc.a(lib_a-fflush.o)
 .bss           0x0000000000000000        0x0 /Users/imac/Develop/stm32f4/arm_gcc/gcc-arm-none-eabi-4_7-2013q3/bin/../lib/gcc/arm-none-eabi/4.7.4/../../../../arm-none-eabi/lib/armv7-m/libc.a(lib_a-fflush.o)
 .text._fflush_r
                0x0000000000000000      0x164 /Users/imac/Develop/stm32f4/arm_gcc/gcc-arm-none-eabi-4_7-2013q3/bin/../lib/gcc/arm-none-eabi/4.7.4/../../../../arm-none-eabi/lib/armv7-m/libc.a(lib_a-fflush.o)
 .text.fflush   0x0000000000000000       0x24 /Users/imac/Develop/stm32f4/arm_gcc/gcc-arm-none-eabi-4_7-2013q3/bin/../lib/gcc/arm-none-eabi/4.7.4/../../../../arm-none-eabi/lib/armv7-m/libc.a(lib_a-fflush.o)
 .ARM.attributes
                0x0000000000000000       0x2d /Users/imac/Develop/stm32f4/arm_gcc/gcc-arm-none-eabi-4_7-2013q3/bin/../lib/gcc/arm-none-eabi/4.7.4/../../../../arm-none-eabi/lib/armv7-m/libc.a(lib_a-fflush.o)
 .debug_frame   0x0000000000000000       0x40 /Users/imac/Develop/stm32f4/arm_gcc/gcc-arm-none-eabi-4_7-2013q3/bin/../lib/gcc/arm-none-eabi/4.7.4/../../../../arm-none-eabi/lib/armv7-m/libc.a(lib_a-fflush.o)
 .text          0x0000000000000000        0x0 /Users/imac/Develop/stm32f4/arm_gcc/gcc-arm-none-eabi-4_7-2013q3/bin/../lib/gcc/arm-none-eabi/4.7.4/../../../../arm-none-eabi/lib/armv7-m/libc.a(lib_a-freer.o)
 .data          0x0000000000000000        0x0 /Users/imac/Develop/stm32f4/arm_gcc/gcc-arm-none-eabi-4_7-2013q3/bin/../lib/gcc/arm-none-eabi/4.7.4/../../../../arm-none-eabi/lib/armv7-m/libc.a(lib_a-freer.o)
 .bss           0x0000000000000000        0x0 /Users/imac/Develop/stm32f4/arm_gcc/gcc-arm-none-eabi-4_7-2013q3/bin/../lib/gcc/arm-none-eabi/4.7.4/../../../../arm-none-eabi/lib/armv7-m/libc.a(lib_a-freer.o)
 .text          0x0000000000000000        0x0 /Users/imac/Develop/stm32f4/arm_gcc/gcc-arm-none-eabi-4_7-2013q3/bin/../lib/gcc/arm-none-eabi/4.7.4/../../../../arm-none-eabi/lib/armv7-m/libc.a(lib_a-gdtoa-gethex.o)
 .data          0x0000000000000000        0x0 /Users/imac/Develop/stm32f4/arm_gcc/gcc-arm-none-eabi-4_7-2013q3/bin/../lib/gcc/arm-none-eabi/4.7.4/../../../../arm-none-eabi/lib/armv7-m/libc.a(lib_a-gdtoa-gethex.o)
 .bss           0x0000000000000000        0x0 /Users/imac/Develop/stm32f4/arm_gcc/gcc-arm-none-eabi-4_7-2013q3/bin/../lib/gcc/arm-none-eabi/4.7.4/../../../../arm-none-eabi/lib/armv7-m/libc.a(lib_a-gdtoa-gethex.o)
 .text          0x0000000000000000        0x0 /Users/imac/Develop/stm32f4/arm_gcc/gcc-arm-none-eabi-4_7-2013q3/bin/../lib/gcc/arm-none-eabi/4.7.4/../../../../arm-none-eabi/lib/armv7-m/libc.a(lib_a-gdtoa-hexnan.o)
 .data          0x0000000000000000        0x0 /Users/imac/Develop/stm32f4/arm_gcc/gcc-arm-none-eabi-4_7-2013q3/bin/../lib/gcc/arm-none-eabi/4.7.4/../../../../arm-none-eabi/lib/armv7-m/libc.a(lib_a-gdtoa-hexnan.o)
 .bss           0x0000000000000000        0x0 /Users/imac/Develop/stm32f4/arm_gcc/gcc-arm-none-eabi-4_7-2013q3/bin/../lib/gcc/arm-none-eabi/4.7.4/../../../../arm-none-eabi/lib/armv7-m/libc.a(lib_a-gdtoa-hexnan.o)
 .text          0x0000000000000000        0x0 /Users/imac/Develop/stm32f4/arm_gcc/gcc-arm-none-eabi-4_7-2013q3/bin/../lib/gcc/arm-none-eabi/4.7.4/../../../../arm-none-eabi/lib/armv7-m/libc.a(lib_a-memchr.o)
 .data          0x0000000000000000        0x0 /Users/imac/Develop/stm32f4/arm_gcc/gcc-arm-none-eabi-4_7-2013q3/bin/../lib/gcc/arm-none-eabi/4.7.4/../../../../arm-none-eabi/lib/armv7-m/libc.a(lib_a-memchr.o)
 .bss           0x0000000000000000        0x0 /Users/imac/Develop/stm32f4/arm_gcc/gcc-arm-none-eabi-4_7-2013q3/bin/../lib/gcc/arm-none-eabi/4.7.4/../../../../arm-none-eabi/lib/armv7-m/libc.a(lib_a-memchr.o)
 .text          0x0000000000000000        0x0 /Users/imac/Develop/stm32f4/arm_gcc/gcc-arm-none-eabi-4_7-2013q3/bin/../lib/gcc/arm-none-eabi/4.7.4/../../../../arm-none-eabi/lib/armv7-m/libc.a(lib_a-memcpy.o)
 .data          0x0000000000000000        0x0 /Users/imac/Develop/stm32f4/arm_gcc/gcc-arm-none-eabi-4_7-2013q3/bin/../lib/gcc/arm-none-eabi/4.7.4/../../../../arm-none-eabi/lib/armv7-m/libc.a(lib_a-memcpy.o)
 .bss           0x0000000000000000        0x0 /Users/imac/Develop/stm32f4/arm_gcc/gcc-arm-none-eabi-4_7-2013q3/bin/../lib/gcc/arm-none-eabi/4.7.4/../../../../arm-none-eabi/lib/armv7-m/libc.a(lib_a-memcpy.o)
 .text          0x0000000000000000        0x0 /Users/imac/Develop/stm32f4/arm_gcc/gcc-arm-none-eabi-4_7-2013q3/bin/../lib/gcc/arm-none-eabi/4.7.4/../../../../arm-none-eabi/lib/armv7-m/libc.a(lib_a-mprec.o)
 .data          0x0000000000000000        0x0 /Users/imac/Develop/stm32f4/arm_gcc/gcc-arm-none-eabi-4_7-2013q3/bin/../lib/gcc/arm-none-eabi/4.7.4/../../../../arm-none-eabi/lib/armv7-m/libc.a(lib_a-mprec.o)
 .bss           0x0000000000000000        0x0 /Users/imac/Develop/stm32f4/arm_gcc/gcc-arm-none-eabi-4_7-2013q3/bin/../lib/gcc/arm-none-eabi/4.7.4/../../../../arm-none-eabi/lib/armv7-m/libc.a(lib_a-mprec.o)
 .text._mprec_log10
                0x0000000000000000       0x68 /Users/imac/Develop/stm32f4/arm_gcc/gcc-arm-none-eabi-4_7-2013q3/bin/../lib/gcc/arm-none-eabi/4.7.4/../../../../arm-none-eabi/lib/armv7-m/libc.a(lib_a-mprec.o)
 .rodata.__mprec_tinytens
                0x0000000000000000       0x28 /Users/imac/Develop/stm32f4/arm_gcc/gcc-arm-none-eabi-4_7-2013q3/bin/../lib/gcc/arm-none-eabi/4.7.4/../../../../arm-none-eabi/lib/armv7-m/libc.a(lib_a-mprec.o)
 .text          0x0000000000000000        0x0 /Users/imac/Develop/stm32f4/arm_gcc/gcc-arm-none-eabi-4_7-2013q3/bin/../lib/gcc/arm-none-eabi/4.7.4/../../../../arm-none-eabi/lib/armv7-m/libc.a(lib_a-reallocr.o)
 .data          0x0000000000000000        0x0 /Users/imac/Develop/stm32f4/arm_gcc/gcc-arm-none-eabi-4_7-2013q3/bin/../lib/gcc/arm-none-eabi/4.7.4/../../../../arm-none-eabi/lib/armv7-m/libc.a(lib_a-reallocr.o)
 .bss           0x0000000000000000        0x0 /Users/imac/Develop/stm32f4/arm_gcc/gcc-arm-none-eabi-4_7-2013q3/bin/../lib/gcc/arm-none-eabi/4.7.4/../../../../arm-none-eabi/lib/armv7-m/libc.a(lib_a-reallocr.o)
 .text          0x0000000000000000        0x0 /Users/imac/Develop/stm32f4/arm_gcc/gcc-arm-none-eabi-4_7-2013q3/bin/../lib/gcc/arm-none-eabi/4.7.4/../../../../arm-none-eabi/lib/armv7-m/libc.a(lib_a-svfiprintf.o)
 .data          0x0000000000000000        0x0 /Users/imac/Develop/stm32f4/arm_gcc/gcc-arm-none-eabi-4_7-2013q3/bin/../lib/gcc/arm-none-eabi/4.7.4/../../../../arm-none-eabi/lib/armv7-m/libc.a(lib_a-svfiprintf.o)
 .bss           0x0000000000000000        0x0 /Users/imac/Develop/stm32f4/arm_gcc/gcc-arm-none-eabi-4_7-2013q3/bin/../lib/gcc/arm-none-eabi/4.7.4/../../../../arm-none-eabi/lib/armv7-m/libc.a(lib_a-svfiprintf.o)
 .text._svfiprintf_r
                0x0000000000000000      0xe90 /Users/imac/Develop/stm32f4/arm_gcc/gcc-arm-none-eabi-4_7-2013q3/bin/../lib/gcc/arm-none-eabi/4.7.4/../../../../arm-none-eabi/lib/armv7-m/libc.a(lib_a-svfiprintf.o)
 .rodata.zeroes.6665
                0x0000000000000000       0x10 /Users/imac/Develop/stm32f4/arm_gcc/gcc-arm-none-eabi-4_7-2013q3/bin/../lib/gcc/arm-none-eabi/4.7.4/../../../../arm-none-eabi/lib/armv7-m/libc.a(lib_a-svfiprintf.o)
 .rodata.str1.4
                0x0000000000000000       0x30 /Users/imac/Develop/stm32f4/arm_gcc/gcc-arm-none-eabi-4_7-2013q3/bin/../lib/gcc/arm-none-eabi/4.7.4/../../../../arm-none-eabi/lib/armv7-m/libc.a(lib_a-svfiprintf.o)
 .rodata.blanks.6664
                0x0000000000000000       0x10 /Users/imac/Develop/stm32f4/arm_gcc/gcc-arm-none-eabi-4_7-2013q3/bin/../lib/gcc/arm-none-eabi/4.7.4/../../../../arm-none-eabi/lib/armv7-m/libc.a(lib_a-svfiprintf.o)
 .text          0x0000000000000000        0x0 /Users/imac/Develop/stm32f4/arm_gcc/gcc-arm-none-eabi-4_7-2013q3/bin/../lib/gcc/arm-none-eabi/4.7.4/../../../../arm-none-eabi/lib/armv7-m/libc.a(lib_a-callocr.o)
 .data          0x0000000000000000        0x0 /Users/imac/Develop/stm32f4/arm_gcc/gcc-arm-none-eabi-4_7-2013q3/bin/../lib/gcc/arm-none-eabi/4.7.4/../../../../arm-none-eabi/lib/armv7-m/libc.a(lib_a-callocr.o)
 .bss           0x0000000000000000        0x0 /Users/imac/Develop/stm32f4/arm_gcc/gcc-arm-none-eabi-4_7-2013q3/bin/../lib/gcc/arm-none-eabi/4.7.4/../../../../arm-none-eabi/lib/armv7-m/libc.a(lib_a-callocr.o)
 .text          0x0000000000000000        0x0 /Users/imac/Develop/stm32f4/arm_gcc/gcc-arm-none-eabi-4_7-2013q3/bin/../lib/gcc/arm-none-eabi/4.7.4/../../../../arm-none-eabi/lib/armv7-m/libc.a(lib_a-memmove.o)
 .data          0x0000000000000000        0x0 /Users/imac/Develop/stm32f4/arm_gcc/gcc-arm-none-eabi-4_7-2013q3/bin/../lib/gcc/arm-none-eabi/4.7.4/../../../../arm-none-eabi/lib/armv7-m/libc.a(lib_a-memmove.o)
 .bss           0x0000000000000000        0x0 /Users/imac/Develop/stm32f4/arm_gcc/gcc-arm-none-eabi-4_7-2013q3/bin/../lib/gcc/arm-none-eabi/4.7.4/../../../../arm-none-eabi/lib/armv7-m/libc.a(lib_a-memmove.o)
 .data          0x0000000000000000        0x0 /Users/imac/Develop/stm32f4/arm_gcc/gcc-arm-none-eabi-4_7-2013q3/bin/../lib/gcc/arm-none-eabi/4.7.4/armv7-m/libgcc.a(_arm_addsubdf3.o)
 .bss           0x0000000000000000        0x0 /Users/imac/Develop/stm32f4/arm_gcc/gcc-arm-none-eabi-4_7-2013q3/bin/../lib/gcc/arm-none-eabi/4.7.4/armv7-m/libgcc.a(_arm_addsubdf3.o)
 .data          0x0000000000000000        0x0 /Users/imac/Develop/stm32f4/arm_gcc/gcc-arm-none-eabi-4_7-2013q3/bin/../lib/gcc/arm-none-eabi/4.7.4/armv7-m/libgcc.a(_arm_muldivdf3.o)
 .bss           0x0000000000000000        0x0 /Users/imac/Develop/stm32f4/arm_gcc/gcc-arm-none-eabi-4_7-2013q3/bin/../lib/gcc/arm-none-eabi/4.7.4/armv7-m/libgcc.a(_arm_muldivdf3.o)
 .data          0x0000000000000000        0x0 /Users/imac/Develop/stm32f4/arm_gcc/gcc-arm-none-eabi-4_7-2013q3/bin/../lib/gcc/arm-none-eabi/4.7.4/armv7-m/libgcc.a(_arm_cmpdf2.o)
 .bss           0x0000000000000000        0x0 /Users/imac/Develop/stm32f4/arm_gcc/gcc-arm-none-eabi-4_7-2013q3/bin/../lib/gcc/arm-none-eabi/4.7.4/armv7-m/libgcc.a(_arm_cmpdf2.o)
 .data          0x0000000000000000        0x0 /Users/imac/Develop/stm32f4/arm_gcc/gcc-arm-none-eabi-4_7-2013q3/bin/../lib/gcc/arm-none-eabi/4.7.4/armv7-m/libgcc.a(_arm_fixdfsi.o)
 .bss           0x0000000000000000        0x0 /Users/imac/Develop/stm32f4/arm_gcc/gcc-arm-none-eabi-4_7-2013q3/bin/../lib/gcc/arm-none-eabi/4.7.4/armv7-m/libgcc.a(_arm_fixdfsi.o)
 .data          0x0000000000000000        0x0 /Users/imac/Develop/stm32f4/arm_gcc/gcc-arm-none-eabi-4_7-2013q3/bin/../lib/gcc/arm-none-eabi/4.7.4/armv7-m/libgcc.a(_arm_fixunsdfsi.o)
 .bss           0x0000000000000000        0x0 /Users/imac/Develop/stm32f4/arm_gcc/gcc-arm-none-eabi-4_7-2013q3/bin/../lib/gcc/arm-none-eabi/4.7.4/armv7-m/libgcc.a(_arm_fixunsdfsi.o)
 .data          0x0000000000000000        0x0 /Users/imac/Develop/stm32f4/arm_gcc/gcc-arm-none-eabi-4_7-2013q3/bin/../lib/gcc/arm-none-eabi/4.7.4/armv7-m/libgcc.a(_arm_truncdfsf2.o)
 .bss           0x0000000000000000        0x0 /Users/imac/Develop/stm32f4/arm_gcc/gcc-arm-none-eabi-4_7-2013q3/bin/../lib/gcc/arm-none-eabi/4.7.4/armv7-m/libgcc.a(_arm_truncdfsf2.o)
 .data          0x0000000000000000        0x0 /Users/imac/Develop/stm32f4/arm_gcc/gcc-arm-none-eabi-4_7-2013q3/bin/../lib/gcc/arm-none-eabi/4.7.4/armv7-m/libgcc.a(_aeabi_uldivmod.o)
 .bss           0x0000000000000000        0x0 /Users/imac/Develop/stm32f4/arm_gcc/gcc-arm-none-eabi-4_7-2013q3/bin/../lib/gcc/arm-none-eabi/4.7.4/armv7-m/libgcc.a(_aeabi_uldivmod.o)
 .data          0x0000000000000000        0x0 /Users/imac/Develop/stm32f4/arm_gcc/gcc-arm-none-eabi-4_7-2013q3/bin/../lib/gcc/arm-none-eabi/4.7.4/armv7-m/libgcc.a(bpabi.o)
 .bss           0x0000000000000000        0x0 /Users/imac/Develop/stm32f4/arm_gcc/gcc-arm-none-eabi-4_7-2013q3/bin/../lib/gcc/arm-none-eabi/4.7.4/armv7-m/libgcc.a(bpabi.o)
 .data          0x0000000000000000        0x0 /Users/imac/Develop/stm32f4/arm_gcc/gcc-arm-none-eabi-4_7-2013q3/bin/../lib/gcc/arm-none-eabi/4.7.4/armv7-m/libgcc.a(_dvmd_tls.o)
 .bss           0x0000000000000000        0x0 /Users/imac/Develop/stm32f4/arm_gcc/gcc-arm-none-eabi-4_7-2013q3/bin/../lib/gcc/arm-none-eabi/4.7.4/armv7-m/libgcc.a(_dvmd_tls.o)
 .data          0x0000000000000000        0x0 /Users/imac/Develop/stm32f4/arm_gcc/gcc-arm-none-eabi-4_7-2013q3/bin/../lib/gcc/arm-none-eabi/4.7.4/armv7-m/libgcc.a(_divdi3.o)
 .bss           0x0000000000000000        0x0 /Users/imac/Develop/stm32f4/arm_gcc/gcc-arm-none-eabi-4_7-2013q3/bin/../lib/gcc/arm-none-eabi/4.7.4/armv7-m/libgcc.a(_divdi3.o)
 .ARM.extab     0x0000000000000000        0x0 /Users/imac/Develop/stm32f4/arm_gcc/gcc-arm-none-eabi-4_7-2013q3/bin/../lib/gcc/arm-none-eabi/4.7.4/armv7-m/libgcc.a(_divdi3.o)
 .data          0x0000000000000000        0x0 /Users/imac/Develop/stm32f4/arm_gcc/gcc-arm-none-eabi-4_7-2013q3/bin/../lib/gcc/arm-none-eabi/4.7.4/armv7-m/libgcc.a(_udivdi3.o)
 .bss           0x0000000000000000        0x0 /Users/imac/Develop/stm32f4/arm_gcc/gcc-arm-none-eabi-4_7-2013q3/bin/../lib/gcc/arm-none-eabi/4.7.4/armv7-m/libgcc.a(_udivdi3.o)
 .ARM.extab     0x0000000000000000        0x0 /Users/imac/Develop/stm32f4/arm_gcc/gcc-arm-none-eabi-4_7-2013q3/bin/../lib/gcc/arm-none-eabi/4.7.4/armv7-m/libgcc.a(_udivdi3.o)

Memory Configuration

Name             Origin             Length             Attributes
RAM              0x0000000020000000 0x0000000000005000 xrw
EXTSRAM          0x0000000068000000 0x0000000000000000 xrw
FLASH            0x0000000008000000 0x000000000001f800 xr
EEMUL            0x000000000801f800 0x0000000000000800 xrw
*default*        0x0000000000000000 0xffffffffffffffff

Linker script and memory map

LOAD main.o
LOAD Ap.o
LOAD Ap_RadioMenu.o
LOAD Ap_Radio.o
LOAD Ap_GLcdMenu.o
LOAD Ap_EduMenu.o
LOAD Ap_StrCmd.o
LOAD Ap_StrCmd_Q.o
LOAD Ap_StrCmd_List.o
LOAD Ap_StrCmd_MOVE.o
LOAD Lb_Util.o
LOAD Lb_Printf.o
LOAD Hw_StartUp.o
LOAD Hw.o
LOAD Hw_Uart.o
LOAD Hw_PLL.o
LOAD Hw_Led.o
LOAD Hw_Uart_Q.o
LOAD Hw_ISR.o
LOAD Hw_Timer.o
LOAD Hw_VCom.o
LOAD Hw_I2C.o
LOAD Hw_I2C_SW.o
LOAD Hw_Si47xx.o
LOAD Hw_SPI.o
LOAD Hw_N5110G.o
LOAD Hw_DMA.o
LOAD Hw_VBus.o
LOAD Hw_KeyPad.o
LOAD Hw_7Seg.o
LOAD Hw_CLcd.o
LOAD Hw_Adc.o
LOAD Hw_Cds.o
LOAD Hw_DcMotor.o
LOAD Hw_Pwm.o
LOAD Hw_Sonic.o
LOAD usb_desc.o
LOAD usb_endp.o
LOAD usb_istr.o
LOAD usb_prop.o
LOAD usb_pwr.o
LOAD hw_config.o
LOAD usb_core.o
LOAD usb_init.o
LOAD usb_mem.o
LOAD usb_regs.o
LOAD usb_sil.o
LOAD usb_int.o
LOAD /Users/imac/Develop/stm32f4/arm_gcc/gcc-arm-none-eabi-4_7-2013q3/bin/../lib/gcc/arm-none-eabi/4.7.4/../../../../arm-none-eabi/lib/armv7-m/libc.a
LOAD /Users/imac/Develop/stm32f4/arm_gcc/gcc-arm-none-eabi-4_7-2013q3/bin/../lib/gcc/arm-none-eabi/4.7.4/../../../../arm-none-eabi/lib/armv7-m/libm.a
LOAD /Users/imac/Develop/stm32f4/arm_gcc/gcc-arm-none-eabi-4_7-2013q3/bin/../lib/gcc/arm-none-eabi/4.7.4/../../../../arm-none-eabi/lib/armv7-m/libc.a
LOAD /Users/imac/Develop/stm32f4/arm_gcc/gcc-arm-none-eabi-4_7-2013q3/bin/../lib/gcc/arm-none-eabi/4.7.4/armv7-m/libgcc.a
                0x0000000020005000                _estack = (ORIGIN (RAM) + 0x5000)
                0x000000000801f800                _seemul = ORIGIN (EEMUL)
                0x0000000000000100                _Minimum_Stack_Size = 0x100
                0x0000000000000001                ASSERT ((ORIGIN (FLASH) == ALIGN (ORIGIN (FLASH), 0x80)), Start of memory region flash not aligned for startup vector table)

.text           0x0000000008000000     0xe748
                0x0000000008000000                . = ALIGN (0x80)
                0x0000000000000000                _isr_vectorsflash_offs = (. - 0x8000000)
 *(.isr_vectorsflash)
 .isr_vectorsflash
                0x0000000008000000        0x8 Hw_StartUp.o
                0x0000000008000000                g_pfnVectors
                0x0000000008000008                . = ALIGN (0x4)
 *(.text)
 .text          0x0000000008000008      0x370 /Users/imac/Develop/stm32f4/arm_gcc/gcc-arm-none-eabi-4_7-2013q3/bin/../lib/gcc/arm-none-eabi/4.7.4/armv7-m/libgcc.a(_arm_addsubdf3.o)
                0x0000000008000008                __aeabi_drsub
                0x0000000008000010                __subdf3
                0x0000000008000010                __aeabi_dsub
                0x0000000008000014                __aeabi_dadd
                0x0000000008000014                __adddf3
                0x000000000800028c                __aeabi_ui2d
                0x000000000800028c                __floatunsidf
                0x00000000080002ac                __floatsidf
                0x00000000080002ac                __aeabi_i2d
                0x00000000080002d0                __extendsfdf2
                0x00000000080002d0                __aeabi_f2d
                0x000000000800030c                __aeabi_ul2d
                0x000000000800030c                __floatundidf
                0x000000000800031c                __aeabi_l2d
                0x000000000800031c                __floatdidf
 .text          0x0000000008000378      0x424 /Users/imac/Develop/stm32f4/arm_gcc/gcc-arm-none-eabi-4_7-2013q3/bin/../lib/gcc/arm-none-eabi/4.7.4/armv7-m/libgcc.a(_arm_muldivdf3.o)
                0x0000000008000378                __aeabi_dmul
                0x0000000008000378                __muldf3
                0x00000000080005cc                __aeabi_ddiv
                0x00000000080005cc                __divdf3
 .text          0x000000000800079c      0x110 /Users/imac/Develop/stm32f4/arm_gcc/gcc-arm-none-eabi-4_7-2013q3/bin/../lib/gcc/arm-none-eabi/4.7.4/armv7-m/libgcc.a(_arm_cmpdf2.o)
                0x000000000800079c                __gtdf2
                0x000000000800079c                __gedf2
                0x00000000080007a4                __ltdf2
                0x00000000080007a4                __ledf2
                0x00000000080007ac                __eqdf2
                0x00000000080007ac                __nedf2
                0x00000000080007ac                __cmpdf2
                0x0000000008000828                __aeabi_cdrcmple
                0x0000000008000838                __aeabi_cdcmple
                0x0000000008000838                __aeabi_cdcmpeq
                0x0000000008000848                __aeabi_dcmpeq
                0x000000000800085c                __aeabi_dcmplt
                0x0000000008000870                __aeabi_dcmple
                0x0000000008000884                __aeabi_dcmpge
                0x0000000008000898                __aeabi_dcmpgt
 .text          0x00000000080008ac       0x50 /Users/imac/Develop/stm32f4/arm_gcc/gcc-arm-none-eabi-4_7-2013q3/bin/../lib/gcc/arm-none-eabi/4.7.4/armv7-m/libgcc.a(_arm_fixdfsi.o)
                0x00000000080008ac                __fixdfsi
                0x00000000080008ac                __aeabi_d2iz
 .text          0x00000000080008fc       0x40 /Users/imac/Develop/stm32f4/arm_gcc/gcc-arm-none-eabi-4_7-2013q3/bin/../lib/gcc/arm-none-eabi/4.7.4/armv7-m/libgcc.a(_arm_fixunsdfsi.o)
                0x00000000080008fc                __fixunsdfsi
                0x00000000080008fc                __aeabi_d2uiz
 .text          0x000000000800093c       0xa0 /Users/imac/Develop/stm32f4/arm_gcc/gcc-arm-none-eabi-4_7-2013q3/bin/../lib/gcc/arm-none-eabi/4.7.4/armv7-m/libgcc.a(_arm_truncdfsf2.o)
                0x000000000800093c                __aeabi_d2f
                0x000000000800093c                __truncdfsf2
 .text          0x00000000080009dc       0x2c /Users/imac/Develop/stm32f4/arm_gcc/gcc-arm-none-eabi-4_7-2013q3/bin/../lib/gcc/arm-none-eabi/4.7.4/armv7-m/libgcc.a(_aeabi_uldivmod.o)
                0x00000000080009dc                __aeabi_uldivmod
 .text          0x0000000008000a08       0x60 /Users/imac/Develop/stm32f4/arm_gcc/gcc-arm-none-eabi-4_7-2013q3/bin/../lib/gcc/arm-none-eabi/4.7.4/armv7-m/libgcc.a(bpabi.o)
                0x0000000008000a08                __gnu_ldivmod_helper
                0x0000000008000a38                __gnu_uldivmod_helper
 .text          0x0000000008000a68        0x4 /Users/imac/Develop/stm32f4/arm_gcc/gcc-arm-none-eabi-4_7-2013q3/bin/../lib/gcc/arm-none-eabi/4.7.4/armv7-m/libgcc.a(_dvmd_tls.o)
                0x0000000008000a68                __aeabi_ldiv0
                0x0000000008000a68                __aeabi_idiv0
 .text          0x0000000008000a6c      0x2bc /Users/imac/Develop/stm32f4/arm_gcc/gcc-arm-none-eabi-4_7-2013q3/bin/../lib/gcc/arm-none-eabi/4.7.4/armv7-m/libgcc.a(_divdi3.o)
                0x0000000008000a6c                __divdi3
 .text          0x0000000008000d28      0x28c /Users/imac/Develop/stm32f4/arm_gcc/gcc-arm-none-eabi-4_7-2013q3/bin/../lib/gcc/arm-none-eabi/4.7.4/armv7-m/libgcc.a(_udivdi3.o)
                0x0000000008000d28                __udivdi3
 *(.text.*)
 .text.LED_Tick
                0x0000000008000fb4       0x10 main.o
                0x0000000008000fb4                LED_Tick
 .text.startup.main
                0x0000000008000fc4       0x9c main.o
                0x0000000008000fc4                main
 .text.Ap_Init  0x0000000008001060       0x18 Ap.o
                0x0000000008001060                Ap_Init
 .text.Ap_StrCmd_PutFunc
                0x0000000008001078       0x14 Ap_StrCmd.o
                0x0000000008001078                Ap_StrCmd_PutFunc
 .text.Ap_StrCmd_CallBack_RxdISR
                0x000000000800108c       0x8c Ap_StrCmd.o
                0x000000000800108c                Ap_StrCmd_CallBack_RxdISR
 .text.Ap_StrCmd_AddCmd
                0x0000000008001118      0x110 Ap_StrCmd.o
                0x0000000008001118                Ap_StrCmd_AddCmd
 .text.Ap_StrCmd_Init
                0x0000000008001228       0xc8 Ap_StrCmd.o
                0x0000000008001228                Ap_StrCmd_Init
 .text.Ap_StrCmd_Print
                0x00000000080012f0       0x34 Ap_StrCmd.o
                0x00000000080012f0                Ap_StrCmd_Print
 .text.Ap_StrCmd_SendInfo
                0x0000000008001324       0x50 Ap_StrCmd.o
                0x0000000008001324                Ap_StrCmd_SendInfo
 .text.Ap_StrCmd_SendResp
                0x0000000008001374       0x68 Ap_StrCmd.o
                0x0000000008001374                Ap_StrCmd_SendResp
 .text.Ap_StrCmd_ShowMenuHelp
                0x00000000080013dc       0x74 Ap_StrCmd.o
                0x00000000080013dc                Ap_StrCmd_ShowMenuHelp
 .text.Ap_StrCmd_ShowMenu
                0x0000000008001450       0x6c Ap_StrCmd.o
                0x0000000008001450                Ap_StrCmd_ShowMenu
 .text.Ap_StrCmd_Printf
                0x00000000080014bc       0x30 Ap_StrCmd.o
                0x00000000080014bc                Ap_StrCmd_Printf
 .text.Ap_StrCmd_Echo
                0x00000000080014ec       0x78 Ap_StrCmd.o
                0x00000000080014ec                Ap_StrCmd_Echo
 .text.Ap_StrCmd_ShowInfo
                0x0000000008001564       0x64 Ap_StrCmd.o
                0x0000000008001564                Ap_StrCmd_ShowInfo
 .text.Ap_StrCmd_ExeFunc
                0x00000000080015c8      0x160 Ap_StrCmd.o
                0x00000000080015c8                Ap_StrCmd_ExeFunc
 .text.Ap_StrCmd_ExeCmd
                0x0000000008001728       0x1c Ap_StrCmd.o
                0x0000000008001728                Ap_StrCmd_ExeCmd
 .text.Ap_StrCmd_Q_Init
                0x0000000008001744       0x18 Ap_StrCmd_Q.o
                0x0000000008001744                Ap_StrCmd_Q_Init
 .text.Ap_StrCmd_Q_SIZE
                0x000000000800175c       0x38 Ap_StrCmd_Q.o
                0x000000000800175c                Ap_StrCmd_Q_SIZE
 .text.Ap_StrCmd_Q_Push
                0x0000000008001794       0xb8 Ap_StrCmd_Q.o
                0x0000000008001794                Ap_StrCmd_Q_Push
 .text.Ap_StrCmd_Q_Pop
                0x000000000800184c       0xac Ap_StrCmd_Q.o
                0x000000000800184c                Ap_StrCmd_Q_Pop
 .text.Ap_StrCmd_List
                0x00000000080018f8       0x28 Ap_StrCmd_List.o
                0x00000000080018f8                Ap_StrCmd_List
 .text.Ap_StrCmd_MOVE
                0x0000000008001920       0x70 Ap_StrCmd_MOVE.o
                0x0000000008001920                Ap_StrCmd_MOVE
 .text.Lb_Util_PaseArgs
                0x0000000008001990       0x34 Lb_Util.o
                0x0000000008001990                Lb_Util_PaseArgs
 .text.Lb_Util_atoi
                0x00000000080019c4       0x4c Lb_Util.o
                0x00000000080019c4                Lb_Util_atoi
 .text.__get_MSP
                0x0000000008001a10        0x8 Lb_Util.o
                0x0000000008001a10                __get_MSP
 .text._sbrk    0x0000000008001a18       0x40 Lb_Util.o
                0x0000000008001a18                _sbrk
 .text.print_byte_out
                0x0000000008001a58       0x38 Lb_Printf.o
                0x0000000008001a58                print_byte_out
 .text.PrintString
                0x0000000008001a90       0x20 Lb_Printf.o
 .text.DecToLong
                0x0000000008001ab0       0x44 Lb_Printf.o
                0x0000000008001ab0                DecToLong
 .text.PrintDec
                0x0000000008001af4      0x3cc Lb_Printf.o
 .text.PrintHex
                0x0000000008001ec0      0x3b4 Lb_Printf.o
 .text.Lb_printf
                0x0000000008002274      0x2d4 Lb_Printf.o
                0x0000000008002274                Lb_printf
 .text.Lb_sprintf
                0x0000000008002548      0x2e8 Lb_Printf.o
                0x0000000008002548                Lb_sprintf
 .text.Lb_vsprintf
                0x0000000008002830      0x2d4 Lb_Printf.o
                0x0000000008002830                Lb_vsprintf
 .text.Hw_StartUp_Init
                0x0000000008002b04       0xcc Hw_StartUp.o
                0x0000000008002b04                Hw_StartUp_Init
 .text.Hw_Init  0x0000000008002bd0       0xb0 Hw.o
                0x0000000008002bd0                Hw_Init
 .text.Hw_ISR_UART2_Handler
                0x0000000008002c80       0x34 Hw_Uart.o
                0x0000000008002c80                Hw_ISR_UART2_Handler
 .text.Hw_ISR_UART1_Handler
                0x0000000008002cb4       0x34 Hw_Uart.o
                0x0000000008002cb4                Hw_ISR_UART1_Handler
 .text.Hw_Uart_Putch.part.0
                0x0000000008002ce8       0x1c Hw_Uart.o
 .text.Hw_Uart_Open_COM1
                0x0000000008002d04       0x90 Hw_Uart.o
                0x0000000008002d04                Hw_Uart_Open_COM1
 .text.Hw_Uart_Open_COM2
                0x0000000008002d94       0xb8 Hw_Uart.o
                0x0000000008002d94                Hw_Uart_Open_COM2
 .text.Hw_Uart_Init
                0x0000000008002e4c       0x50 Hw_Uart.o
                0x0000000008002e4c                Hw_Uart_Init
 .text.Hw_Uart_SetReceiveFuncISR
                0x0000000008002e9c       0x24 Hw_Uart.o
                0x0000000008002e9c                Hw_Uart_SetReceiveFuncISR
 .text.Hw_Uart_Putch
                0x0000000008002ec0       0x40 Hw_Uart.o
                0x0000000008002ec0                Hw_Uart_Putch
 .text.print_byte
                0x0000000008002f00       0x1c Hw_Uart.o
                0x0000000008002f00                print_byte
 .text.Hw_PLL_Init
                0x0000000008002f1c       0x94 Hw_PLL.o
                0x0000000008002f1c                Hw_PLL_Init
 .text.Hw_Led_Init
                0x0000000008002fb0       0x44 Hw_Led.o
                0x0000000008002fb0                Hw_Led_Init
 .text.Hw_Led_Toggle
                0x0000000008002ff4       0x14 Hw_Led.o
                0x0000000008002ff4                Hw_Led_Toggle
 .text.Hw_Uart_Q_Init
                0x0000000008003008       0x30 Hw_Uart_Q.o
                0x0000000008003008                Hw_Uart_Q_Init
 .text.Hw_Uart_Q_Push
                0x0000000008003038       0x78 Hw_Uart_Q.o
                0x0000000008003038                Hw_Uart_Q_Push
 .text.Hw_ISR_Init
                0x00000000080030b0       0x14 Hw_ISR.o
                0x00000000080030b0                Hw_ISR_Init
 .text.Hw_ISR_SetIRQFunc
                0x00000000080030c4       0x10 Hw_ISR.o
                0x00000000080030c4                Hw_ISR_SetIRQFunc
 .text.Hw_ISR_SetIRQFuncByAddr
                0x00000000080030d4       0x10 Hw_ISR.o
                0x00000000080030d4                Hw_ISR_SetIRQFuncByAddr
 .text.Hw_Timer_SetupISR
                0x00000000080030e4       0x1c Hw_Timer.o
                0x00000000080030e4                Hw_Timer_SetupISR
 .text.Hw_Timer_Init
                0x0000000008003100      0x144 Hw_Timer.o
                0x0000000008003100                Hw_Timer_Init
 .text.Hw_Timer_Tick
                0x0000000008003244      0x284 Hw_Timer.o
                0x0000000008003244                Hw_Timer_Tick
 .text.Hw_Timer_ISR
                0x00000000080034c8       0x10 Hw_Timer.o
                0x00000000080034c8                Hw_Timer_ISR
 .text.Hw_Timer_Set
                0x00000000080034d8       0x20 Hw_Timer.o
                0x00000000080034d8                Hw_Timer_Set
 .text.Hw_Timer_Start
                0x00000000080034f8       0x14 Hw_Timer.o
                0x00000000080034f8                Hw_Timer_Start
 .text.Hw_Timer_Get_CountValue
                0x000000000800350c        0xc Hw_Timer.o
                0x000000000800350c                Hw_Timer_Get_CountValue
 .text.Hw_Timer_Get_u16Count_Usec
                0x0000000008003518       0x10 Hw_Timer.o
                0x0000000008003518                Hw_Timer_Get_u16Count_Usec
 .text.Hw_VCom_Init
                0x0000000008003528       0x38 Hw_VCom.o
                0x0000000008003528                Hw_VCom_Init
 .text.Hw_VCom_Putch
                0x0000000008003560       0x10 Hw_VCom.o
                0x0000000008003560                Hw_VCom_Putch
 .text.Hw_VCom_SetReceiveFuncISR
                0x0000000008003570        0xc Hw_VCom.o
                0x0000000008003570                Hw_VCom_SetReceiveFuncISR
 .text.Hw_Adc_Init
                0x000000000800357c       0xa0 Hw_Adc.o
                0x000000000800357c                Hw_Adc_Init
 .text.Hw_DcMotor_SetPwm.part.0
                0x000000000800361c       0x2c Hw_DcMotor.o
 .text.Hw_DcMotor_SetDir.part.1
                0x0000000008003648       0x1c Hw_DcMotor.o
 .text.Hw_DcMotor_Stop
                0x0000000008003664       0x3c Hw_DcMotor.o
                0x0000000008003664                Hw_DcMotor_Stop
 .text.Hw_DcMotor_Init
                0x00000000080036a0       0xb0 Hw_DcMotor.o
                0x00000000080036a0                Hw_DcMotor_Init
 .text.Hw_DcMotor_SetDir
                0x0000000008003750       0x6c Hw_DcMotor.o
                0x0000000008003750                Hw_DcMotor_SetDir
 .text.Hw_DcMotor_Handle
                0x00000000080037bc       0xb0 Hw_DcMotor.o
                0x00000000080037bc                Hw_DcMotor_Handle
 .text.Hw_Pwm_IO_Setup
                0x000000000800386c       0x3c Hw_Pwm.o
                0x000000000800386c                Hw_Pwm_IO_Setup
 .text.Hw_Pwm_Timer_Setup
                0x00000000080038a8       0x90 Hw_Pwm.o
                0x00000000080038a8                Hw_Pwm_Timer_Setup
 .text.Hw_Pwm_Init
                0x0000000008003938       0x18 Hw_Pwm.o
                0x0000000008003938                Hw_Pwm_Init
 .text.Hw_Pwm_SetPercent
                0x0000000008003950       0x2c Hw_Pwm.o
                0x0000000008003950                Hw_Pwm_SetPercent
 .text.Hw_Sonic_ISR
                0x000000000800397c       0xe0 Hw_Sonic.o
                0x000000000800397c                Hw_Sonic_ISR
 .text.Hw_Sonic_ExIntEnable.part.1
                0x0000000008003a5c       0x24 Hw_Sonic.o
 .text.Hw_Sonic_ExIntEnable
                0x0000000008003a80       0x38 Hw_Sonic.o
                0x0000000008003a80                Hw_Sonic_ExIntEnable
 .text.Hw_Sonic_ExIntDisable
                0x0000000008003ab8       0x4c Hw_Sonic.o
                0x0000000008003ab8                Hw_Sonic_ExIntDisable
 .text.Hw_Sonic_SetPortDirIN
                0x0000000008003b04       0x64 Hw_Sonic.o
                0x0000000008003b04                Hw_Sonic_SetPortDirIN
 .text.Hw_Sonic_SetPortDirOUT
                0x0000000008003b68       0x44 Hw_Sonic.o
                0x0000000008003b68                Hw_Sonic_SetPortDirOUT
 .text.Hw_Sonic_SetPortLOW
                0x0000000008003bac       0x2c Hw_Sonic.o
                0x0000000008003bac                Hw_Sonic_SetPortLOW
 .text.Hw_Sonic_Init
                0x0000000008003bd8       0xf4 Hw_Sonic.o
                0x0000000008003bd8                Hw_Sonic_Init
 .text.Hw_Sonic_Tick
                0x0000000008003ccc       0xdc Hw_Sonic.o
                0x0000000008003ccc                Hw_Sonic_Tick
 .text.Hw_Sonic_GetDistanceMM
                0x0000000008003da8       0x14 Hw_Sonic.o
                0x0000000008003da8                Hw_Sonic_GetDistanceMM
 .text.EP1_IN_Callback
                0x0000000008003dbc       0x74 usb_endp.o
                0x0000000008003dbc                EP1_IN_Callback
 .text.EP3_OUT_Callback
                0x0000000008003e30       0x34 usb_endp.o
                0x0000000008003e30                EP3_OUT_Callback
 .text.SOF_Callback
                0x0000000008003e64       0x30 usb_endp.o
                0x0000000008003e64                SOF_Callback
 .text.USB_Istr
                0x0000000008003e94      0x278 usb_istr.o
                0x0000000008003e94                USB_Istr
 .text.Virtual_Com_Port_SetConfiguration
                0x000000000800410c       0x18 usb_prop.o
                0x000000000800410c                Virtual_Com_Port_SetConfiguration
 .text.Virtual_Com_Port_SetDeviceAddress
                0x0000000008004124       0x10 usb_prop.o
                0x0000000008004124                Virtual_Com_Port_SetDeviceAddress
 .text.Virtual_Com_Port_Status_In
                0x0000000008004134       0x14 usb_prop.o
                0x0000000008004134                Virtual_Com_Port_Status_In
 .text.Virtual_Com_Port_Status_Out
                0x0000000008004148        0x4 usb_prop.o
                0x0000000008004148                Virtual_Com_Port_Status_Out
 .text.Virtual_Com_Port_Data_Setup
                0x000000000800414c       0x60 usb_prop.o
                0x000000000800414c                Virtual_Com_Port_Data_Setup
 .text.Virtual_Com_Port_NoData_Setup
                0x00000000080041ac       0x24 usb_prop.o
                0x00000000080041ac                Virtual_Com_Port_NoData_Setup
 .text.Virtual_Com_Port_Get_Interface_Setting
                0x00000000080041d0       0x10 usb_prop.o
                0x00000000080041d0                Virtual_Com_Port_Get_Interface_Setting
 .text.Virtual_Com_Port_GetLineCoding
                0x00000000080041e0       0x18 usb_prop.o
                0x00000000080041e0                Virtual_Com_Port_GetLineCoding
 .text.Virtual_Com_Port_SetLineCoding
                0x00000000080041f8       0x18 usb_prop.o
                0x00000000080041f8                Virtual_Com_Port_SetLineCoding
 .text.Virtual_Com_Port_GetStringDescriptor
                0x0000000008004210       0x28 usb_prop.o
                0x0000000008004210                Virtual_Com_Port_GetStringDescriptor
 .text.Virtual_Com_Port_GetConfigDescriptor
                0x0000000008004238       0x18 usb_prop.o
                0x0000000008004238                Virtual_Com_Port_GetConfigDescriptor
 .text.Virtual_Com_Port_GetDeviceDescriptor
                0x0000000008004250       0x18 usb_prop.o
                0x0000000008004250                Virtual_Com_Port_GetDeviceDescriptor
 .text.Virtual_Com_Port_Reset
                0x0000000008004268      0x110 usb_prop.o
                0x0000000008004268                Virtual_Com_Port_Reset
 .text.Virtual_Com_Port_init
                0x0000000008004378       0x3c usb_prop.o
                0x0000000008004378                Virtual_Com_Port_init
 .text.PowerOn  0x00000000080043b4       0x3c usb_pwr.o
                0x00000000080043b4                PowerOn
 .text.Suspend  0x00000000080043f0      0x1a8 usb_pwr.o
                0x00000000080043f0                Suspend
 .text.Resume_Init
                0x0000000008004598       0x28 usb_pwr.o
                0x0000000008004598                Resume_Init
 .text.Resume   0x00000000080045c0       0xbc usb_pwr.o
                0x00000000080045c0                Resume
 .text.USBWakeUp_IRQHandler
                0x000000000800467c       0x10 hw_config.o
                0x000000000800467c                USBWakeUp_IRQHandler
 .text.IntToUnicode
                0x000000000800468c       0x78 hw_config.o
 .text.USB_LP_IRQHandler
                0x0000000008004704       0x10 hw_config.o
                0x0000000008004704                USB_LP_IRQHandler
 .text.Set_System
                0x0000000008004714       0x20 hw_config.o
                0x0000000008004714                Set_System
 .text.Set_USBClock
                0x0000000008004734       0x24 hw_config.o
                0x0000000008004734                Set_USBClock
 .text.Leave_LowPowerMode
                0x0000000008004758       0x20 hw_config.o
                0x0000000008004758                Leave_LowPowerMode
 .text.USB_Interrupts_Config
                0x0000000008004778       0xb0 hw_config.o
                0x0000000008004778                USB_Interrupts_Config
 .text.USB_Cable_Config
                0x0000000008004828       0x1c hw_config.o
                0x0000000008004828                USB_Cable_Config
 .text.USB_To_USART_Send_Data
                0x0000000008004844       0xa8 hw_config.o
                0x0000000008004844                USB_To_USART_Send_Data
 .text.Handle_USBAsynchXfer
                0x00000000080048ec       0xa4 hw_config.o
                0x00000000080048ec                Handle_USBAsynchXfer
 .text.USB_Send_Data
                0x0000000008004990       0x38 hw_config.o
                0x0000000008004990                USB_Send_Data
 .text.Get_SerialNum
                0x00000000080049c8       0x44 hw_config.o
                0x00000000080049c8                Get_SerialNum
 .text.__WFI    0x0000000008004a0c        0x4 hw_config.o
                0x0000000008004a0c                __WFI
 .text.Standard_GetConfiguration
                0x0000000008004a10       0x28 usb_core.o
                0x0000000008004a10                Standard_GetConfiguration
 .text.Standard_GetInterface
                0x0000000008004a38       0x28 usb_core.o
                0x0000000008004a38                Standard_GetInterface
 .text.Standard_GetStatus
                0x0000000008004a60       0xa0 usb_core.o
                0x0000000008004a60                Standard_GetStatus
 .text.DataStageIn
                0x0000000008004b00       0xc0 usb_core.o
 .text.Standard_SetConfiguration
                0x0000000008004bc0       0x3c usb_core.o
                0x0000000008004bc0                Standard_SetConfiguration
 .text.Standard_SetInterface
                0x0000000008004bfc       0x50 usb_core.o
                0x0000000008004bfc                Standard_SetInterface
 .text.Standard_ClearFeature
                0x0000000008004c4c       0xf8 usb_core.o
                0x0000000008004c4c                Standard_ClearFeature
 .text.Standard_SetEndPointFeature
                0x0000000008004d44       0x98 usb_core.o
                0x0000000008004d44                Standard_SetEndPointFeature
 .text.Standard_GetDescriptorData
                0x0000000008004ddc       0x1c usb_core.o
                0x0000000008004ddc                Standard_GetDescriptorData
 .text.Post0_Process
                0x0000000008004df8       0x48 usb_core.o
                0x0000000008004df8                Post0_Process
 .text.Out0_Process
                0x0000000008004e40       0xf0 usb_core.o
                0x0000000008004e40                Out0_Process
 .text.Setup0_Process
                0x0000000008004f30      0x388 usb_core.o
                0x0000000008004f30                Setup0_Process
 .text.SetDeviceAddress
                0x00000000080052b8       0xa8 usb_core.o
                0x00000000080052b8                SetDeviceAddress
 .text.In0_Process
                0x0000000008005360       0x6c usb_core.o
                0x0000000008005360                In0_Process
 .text.NOP_Process
                0x00000000080053cc        0x4 usb_core.o
                0x00000000080053cc                NOP_Process
 .text.USB_Init
                0x00000000080053d0       0x44 usb_init.o
                0x00000000080053d0                USB_Init
 .text.UserToPMABufferCopy
                0x0000000008005414       0x78 usb_mem.o
                0x0000000008005414                UserToPMABufferCopy
 .text.PMAToUserBufferCopy
                0x000000000800548c       0x50 usb_mem.o
                0x000000000800548c                PMAToUserBufferCopy
 .text.SetBTABLE
                0x00000000080054dc       0x14 usb_regs.o
                0x00000000080054dc                SetBTABLE
 .text.SetEPType
                0x00000000080054f0       0x18 usb_regs.o
                0x00000000080054f0                SetEPType
 .text.SetEPTxStatus
                0x0000000008005508       0x40 usb_regs.o
                0x0000000008005508                SetEPTxStatus
 .text.SetEPRxStatus
                0x0000000008005548       0x40 usb_regs.o
                0x0000000008005548                SetEPRxStatus
 .text.SetEPTxValid
                0x0000000008005588       0x24 usb_regs.o
                0x0000000008005588                SetEPTxValid
 .text.SetEPRxValid
                0x00000000080055ac       0x24 usb_regs.o
                0x00000000080055ac                SetEPRxValid
 .text.Clear_Status_Out
                0x00000000080055d0       0x20 usb_regs.o
                0x00000000080055d0                Clear_Status_Out
 .text.ClearDTOG_RX
                0x00000000080055f0       0x24 usb_regs.o
                0x00000000080055f0                ClearDTOG_RX
 .text.ClearDTOG_TX
                0x0000000008005614       0x24 usb_regs.o
                0x0000000008005614                ClearDTOG_TX
 .text.SetEPTxAddr
                0x0000000008005638       0x24 usb_regs.o
                0x0000000008005638                SetEPTxAddr
 .text.SetEPRxAddr
                0x000000000800565c       0x28 usb_regs.o
                0x000000000800565c                SetEPRxAddr
 .text.GetEPTxAddr
                0x0000000008005684       0x20 usb_regs.o
                0x0000000008005684                GetEPTxAddr
 .text.GetEPRxAddr
                0x00000000080056a4       0x20 usb_regs.o
                0x00000000080056a4                GetEPRxAddr
 .text.SetEPTxCount
                0x00000000080056c4       0x20 usb_regs.o
                0x00000000080056c4                SetEPTxCount
 .text.SetEPRxCount
                0x00000000080056e4       0x44 usb_regs.o
                0x00000000080056e4                SetEPRxCount
 .text.GetEPRxCount
                0x0000000008005728       0x24 usb_regs.o
                0x0000000008005728                GetEPRxCount
 .text.ByteSwap
                0x000000000800574c        0xc usb_regs.o
                0x000000000800574c                ByteSwap
 .text.USB_SIL_Init
                0x0000000008005758       0x2c usb_sil.o
                0x0000000008005758                USB_SIL_Init
 .text.USB_SIL_Read
                0x0000000008005784       0x38 usb_sil.o
                0x0000000008005784                USB_SIL_Read
 .text.CTR_LP   0x00000000080057bc      0x1bc usb_int.o
                0x00000000080057bc                CTR_LP
 .text.__errno  0x0000000008005978        0xc /Users/imac/Develop/stm32f4/arm_gcc/gcc-arm-none-eabi-4_7-2013q3/bin/../lib/gcc/arm-none-eabi/4.7.4/../../../../arm-none-eabi/lib/armv7-m/libc.a(lib_a-errno.o)
                0x0000000008005978                __errno
 .text.sscanf   0x0000000008005984       0x5c /Users/imac/Develop/stm32f4/arm_gcc/gcc-arm-none-eabi-4_7-2013q3/bin/../lib/gcc/arm-none-eabi/4.7.4/../../../../arm-none-eabi/lib/armv7-m/libc.a(lib_a-sscanf.o)
                0x0000000008005984                sscanf
 .text.__seofread
                0x00000000080059e0        0x4 /Users/imac/Develop/stm32f4/arm_gcc/gcc-arm-none-eabi-4_7-2013q3/bin/../lib/gcc/arm-none-eabi/4.7.4/../../../../arm-none-eabi/lib/armv7-m/libc.a(lib_a-stdio.o)
                0x00000000080059e0                __seofread
 .text.strcmp   0x00000000080059e4       0x80 /Users/imac/Develop/stm32f4/arm_gcc/gcc-arm-none-eabi-4_7-2013q3/bin/../lib/gcc/arm-none-eabi/4.7.4/../../../../arm-none-eabi/lib/armv7-m/libc.a(lib_a-strcmp.o)
                0x00000000080059e4                strcmp
 .text.strcmp_unaligned
                0x0000000008005a64      0x15c /Users/imac/Develop/stm32f4/arm_gcc/gcc-arm-none-eabi-4_7-2013q3/bin/../lib/gcc/arm-none-eabi/4.7.4/../../../../arm-none-eabi/lib/armv7-m/libc.a(lib_a-strcmp.o)
 .text.strlen   0x0000000008005bc0       0x60 /Users/imac/Develop/stm32f4/arm_gcc/gcc-arm-none-eabi-4_7-2013q3/bin/../lib/gcc/arm-none-eabi/4.7.4/../../../../arm-none-eabi/lib/armv7-m/libc.a(lib_a-strlen.o)
                0x0000000008005bc0                strlen
 .text.strncmp  0x0000000008005c20      0x120 /Users/imac/Develop/stm32f4/arm_gcc/gcc-arm-none-eabi-4_7-2013q3/bin/../lib/gcc/arm-none-eabi/4.7.4/../../../../arm-none-eabi/lib/armv7-m/libc.a(lib_a-strncmp.o)
                0x0000000008005c20                strncmp
 .text.strtok   0x0000000008005d40       0x14 /Users/imac/Develop/stm32f4/arm_gcc/gcc-arm-none-eabi-4_7-2013q3/bin/../lib/gcc/arm-none-eabi/4.7.4/../../../../arm-none-eabi/lib/armv7-m/libc.a(lib_a-strtok.o)
                0x0000000008005d40                strtok
 .text.__strtok_r
                0x0000000008005d54       0x60 /Users/imac/Develop/stm32f4/arm_gcc/gcc-arm-none-eabi-4_7-2013q3/bin/../lib/gcc/arm-none-eabi/4.7.4/../../../../arm-none-eabi/lib/armv7-m/libc.a(lib_a-strtok_r.o)
                0x0000000008005d54                __strtok_r
 .text.__ssvfscanf_r
                0x0000000008005db4     0x11b8 /Users/imac/Develop/stm32f4/arm_gcc/gcc-arm-none-eabi-4_7-2013q3/bin/../lib/gcc/arm-none-eabi/4.7.4/../../../../arm-none-eabi/lib/armv7-m/libc.a(lib_a-svfscanf.o)
                0x0000000008005db4                __ssvfscanf_r
 .text.__sfp_lock_acquire
                0x0000000008006f6c        0x4 /Users/imac/Develop/stm32f4/arm_gcc/gcc-arm-none-eabi-4_7-2013q3/bin/../lib/gcc/arm-none-eabi/4.7.4/../../../../arm-none-eabi/lib/armv7-m/libc.a(lib_a-findfp.o)
                0x0000000008006f6c                __sfp_lock_acquire
 .text.__sfp_lock_release
                0x0000000008006f70        0x4 /Users/imac/Develop/stm32f4/arm_gcc/gcc-arm-none-eabi-4_7-2013q3/bin/../lib/gcc/arm-none-eabi/4.7.4/../../../../arm-none-eabi/lib/armv7-m/libc.a(lib_a-findfp.o)
                0x0000000008006f70                __sfp_lock_release
 .text.iswspace
                0x0000000008006f74       0x1c /Users/imac/Develop/stm32f4/arm_gcc/gcc-arm-none-eabi-4_7-2013q3/bin/../lib/gcc/arm-none-eabi/4.7.4/../../../../arm-none-eabi/lib/armv7-m/libc.a(lib_a-iswspace.o)
                0x0000000008006f74                iswspace
 .text.__locale_charset
                0x0000000008006f90        0xc /Users/imac/Develop/stm32f4/arm_gcc/gcc-arm-none-eabi-4_7-2013q3/bin/../lib/gcc/arm-none-eabi/4.7.4/../../../../arm-none-eabi/lib/armv7-m/libc.a(lib_a-locale.o)
                0x0000000008006f90                __locale_charset
 .text.__locale_mb_cur_max
                0x0000000008006f9c        0xc /Users/imac/Develop/stm32f4/arm_gcc/gcc-arm-none-eabi-4_7-2013q3/bin/../lib/gcc/arm-none-eabi/4.7.4/../../../../arm-none-eabi/lib/armv7-m/libc.a(lib_a-locale.o)
                0x0000000008006f9c                __locale_mb_cur_max
 .text._localeconv_r
                0x0000000008006fa8        0xc /Users/imac/Develop/stm32f4/arm_gcc/gcc-arm-none-eabi-4_7-2013q3/bin/../lib/gcc/arm-none-eabi/4.7.4/../../../../arm-none-eabi/lib/armv7-m/libc.a(lib_a-locale.o)
                0x0000000008006fa8                _localeconv_r
 .text._malloc_r
                0x0000000008006fb4      0x530 /Users/imac/Develop/stm32f4/arm_gcc/gcc-arm-none-eabi-4_7-2013q3/bin/../lib/gcc/arm-none-eabi/4.7.4/../../../../arm-none-eabi/lib/armv7-m/libc.a(lib_a-mallocr.o)
                0x0000000008006fb4                _malloc_r
 .text._mbrtowc_r
                0x00000000080074e4       0x5c /Users/imac/Develop/stm32f4/arm_gcc/gcc-arm-none-eabi-4_7-2013q3/bin/../lib/gcc/arm-none-eabi/4.7.4/../../../../arm-none-eabi/lib/armv7-m/libc.a(lib_a-mbrtowc.o)
                0x00000000080074e4                _mbrtowc_r
 .text.__ascii_mbtowc
                0x0000000008007540       0x28 /Users/imac/Develop/stm32f4/arm_gcc/gcc-arm-none-eabi-4_7-2013q3/bin/../lib/gcc/arm-none-eabi/4.7.4/../../../../arm-none-eabi/lib/armv7-m/libc.a(lib_a-mbtowc_r.o)
                0x0000000008007540                __ascii_mbtowc
 .text.memset   0x0000000008007568      0x12c /Users/imac/Develop/stm32f4/arm_gcc/gcc-arm-none-eabi-4_7-2013q3/bin/../lib/gcc/arm-none-eabi/4.7.4/../../../../arm-none-eabi/lib/armv7-m/libc.a(lib_a-memset.o)
                0x0000000008007568                memset
 .text.__malloc_lock
                0x0000000008007694        0x4 /Users/imac/Develop/stm32f4/arm_gcc/gcc-arm-none-eabi-4_7-2013q3/bin/../lib/gcc/arm-none-eabi/4.7.4/../../../../arm-none-eabi/lib/armv7-m/libc.a(lib_a-mlock.o)
                0x0000000008007694                __malloc_lock
 .text.__malloc_unlock
                0x0000000008007698        0x4 /Users/imac/Develop/stm32f4/arm_gcc/gcc-arm-none-eabi-4_7-2013q3/bin/../lib/gcc/arm-none-eabi/4.7.4/../../../../arm-none-eabi/lib/armv7-m/libc.a(lib_a-mlock.o)
                0x0000000008007698                __malloc_unlock
 .text.__fpclassifyd
                0x000000000800769c       0x68 /Users/imac/Develop/stm32f4/arm_gcc/gcc-arm-none-eabi-4_7-2013q3/bin/../lib/gcc/arm-none-eabi/4.7.4/../../../../arm-none-eabi/lib/armv7-m/libc.a(lib_a-s_fpclassify.o)
                0x000000000800769c                __fpclassifyd
 .text._sbrk_r  0x0000000008007704       0x24 /Users/imac/Develop/stm32f4/arm_gcc/gcc-arm-none-eabi-4_7-2013q3/bin/../lib/gcc/arm-none-eabi/4.7.4/../../../../arm-none-eabi/lib/armv7-m/libc.a(lib_a-sbrkr.o)
                0x0000000008007704                _sbrk_r
 .text.__sccl   0x0000000008007728       0x94 /Users/imac/Develop/stm32f4/arm_gcc/gcc-arm-none-eabi-4_7-2013q3/bin/../lib/gcc/arm-none-eabi/4.7.4/../../../../arm-none-eabi/lib/armv7-m/libc.a(lib_a-sccl.o)
                0x0000000008007728                __sccl
 .text.nanf     0x00000000080077bc        0x8 /Users/imac/Develop/stm32f4/arm_gcc/gcc-arm-none-eabi-4_7-2013q3/bin/../lib/gcc/arm-none-eabi/4.7.4/../../../../arm-none-eabi/lib/armv7-m/libc.a(lib_a-sf_nan.o)
                0x00000000080077bc                nanf
 .text.sprintf  0x00000000080077c4       0x50 /Users/imac/Develop/stm32f4/arm_gcc/gcc-arm-none-eabi-4_7-2013q3/bin/../lib/gcc/arm-none-eabi/4.7.4/../../../../arm-none-eabi/lib/armv7-m/libc.a(lib_a-sprintf.o)
                0x00000000080077c4                sprintf
 *fill*         0x0000000008007814        0x4 00
 .text._strtod_r
                0x0000000008007818      0xeb0 /Users/imac/Develop/stm32f4/arm_gcc/gcc-arm-none-eabi-4_7-2013q3/bin/../lib/gcc/arm-none-eabi/4.7.4/../../../../arm-none-eabi/lib/armv7-m/libc.a(lib_a-strtod.o)
                0x0000000008007818                _strtod_r
 .text._strtol_r
                0x00000000080086c8      0x130 /Users/imac/Develop/stm32f4/arm_gcc/gcc-arm-none-eabi-4_7-2013q3/bin/../lib/gcc/arm-none-eabi/4.7.4/../../../../arm-none-eabi/lib/armv7-m/libc.a(lib_a-strtol.o)
                0x00000000080086c8                _strtol_r
 .text._strtoll_r
                0x00000000080087f8      0x1b0 /Users/imac/Develop/stm32f4/arm_gcc/gcc-arm-none-eabi-4_7-2013q3/bin/../lib/gcc/arm-none-eabi/4.7.4/../../../../arm-none-eabi/lib/armv7-m/libc.a(lib_a-strtoll_r.o)
                0x00000000080087f8                _strtoll_r
 .text._strtoul_r
                0x00000000080089a8      0x150 /Users/imac/Develop/stm32f4/arm_gcc/gcc-arm-none-eabi-4_7-2013q3/bin/../lib/gcc/arm-none-eabi/4.7.4/../../../../arm-none-eabi/lib/armv7-m/libc.a(lib_a-strtoul.o)
                0x00000000080089a8                _strtoul_r
 .text._strtoull_r
                0x0000000008008af8      0x1f0 /Users/imac/Develop/stm32f4/arm_gcc/gcc-arm-none-eabi-4_7-2013q3/bin/../lib/gcc/arm-none-eabi/4.7.4/../../../../arm-none-eabi/lib/armv7-m/libc.a(lib_a-strtoull_r.o)
                0x0000000008008af8                _strtoull_r
 .text._sungetc_r
                0x0000000008008ce8       0x80 /Users/imac/Develop/stm32f4/arm_gcc/gcc-arm-none-eabi-4_7-2013q3/bin/../lib/gcc/arm-none-eabi/4.7.4/../../../../arm-none-eabi/lib/armv7-m/libc.a(lib_a-svfiscanf.o)
                0x0000000008008ce8                _sungetc_r
 .text.__ssrefill_r
                0x0000000008008d68       0x3c /Users/imac/Develop/stm32f4/arm_gcc/gcc-arm-none-eabi-4_7-2013q3/bin/../lib/gcc/arm-none-eabi/4.7.4/../../../../arm-none-eabi/lib/armv7-m/libc.a(lib_a-svfiscanf.o)
                0x0000000008008d68                __ssrefill_r
 .text._sfread_r
                0x0000000008008da4       0x7c /Users/imac/Develop/stm32f4/arm_gcc/gcc-arm-none-eabi-4_7-2013q3/bin/../lib/gcc/arm-none-eabi/4.7.4/../../../../arm-none-eabi/lib/armv7-m/libc.a(lib_a-svfiscanf.o)
                0x0000000008008da4                _sfread_r
 .text._svfprintf_r
                0x0000000008008e20     0x1adc /Users/imac/Develop/stm32f4/arm_gcc/gcc-arm-none-eabi-4_7-2013q3/bin/../lib/gcc/arm-none-eabi/4.7.4/../../../../arm-none-eabi/lib/armv7-m/libc.a(lib_a-svfprintf.o)
                0x0000000008008e20                _svfprintf_r
 .text.__submore
                0x000000000800a8fc       0x7c /Users/imac/Develop/stm32f4/arm_gcc/gcc-arm-none-eabi-4_7-2013q3/bin/../lib/gcc/arm-none-eabi/4.7.4/../../../../arm-none-eabi/lib/armv7-m/libc.a(lib_a-ungetc.o)
                0x000000000800a8fc                __submore
 .text.quorem   0x000000000800a978      0x2ec /Users/imac/Develop/stm32f4/arm_gcc/gcc-arm-none-eabi-4_7-2013q3/bin/../lib/gcc/arm-none-eabi/4.7.4/../../../../arm-none-eabi/lib/armv7-m/libc.a(lib_a-dtoa.o)
 *fill*         0x000000000800ac64        0x4 00
 .text._dtoa_r  0x000000000800ac68     0x11f8 /Users/imac/Develop/stm32f4/arm_gcc/gcc-arm-none-eabi-4_7-2013q3/bin/../lib/gcc/arm-none-eabi/4.7.4/../../../../arm-none-eabi/lib/armv7-m/libc.a(lib_a-dtoa.o)
                0x000000000800ac68                _dtoa_r
 .text._malloc_trim_r
                0x000000000800be60       0x98 /Users/imac/Develop/stm32f4/arm_gcc/gcc-arm-none-eabi-4_7-2013q3/bin/../lib/gcc/arm-none-eabi/4.7.4/../../../../arm-none-eabi/lib/armv7-m/libc.a(lib_a-freer.o)
                0x000000000800be60                _malloc_trim_r
 .text._free_r  0x000000000800bef8      0x194 /Users/imac/Develop/stm32f4/arm_gcc/gcc-arm-none-eabi-4_7-2013q3/bin/../lib/gcc/arm-none-eabi/4.7.4/../../../../arm-none-eabi/lib/armv7-m/libc.a(lib_a-freer.o)
                0x000000000800bef8                _free_r
 .text.rshift   0x000000000800c08c      0x148 /Users/imac/Develop/stm32f4/arm_gcc/gcc-arm-none-eabi-4_7-2013q3/bin/../lib/gcc/arm-none-eabi/4.7.4/../../../../arm-none-eabi/lib/armv7-m/libc.a(lib_a-gdtoa-gethex.o)
 .text.__hexdig_init
                0x000000000800c1d4       0x50 /Users/imac/Develop/stm32f4/arm_gcc/gcc-arm-none-eabi-4_7-2013q3/bin/../lib/gcc/arm-none-eabi/4.7.4/../../../../arm-none-eabi/lib/armv7-m/libc.a(lib_a-gdtoa-gethex.o)
                0x000000000800c1d4                __hexdig_init
 .text.__gethex
                0x000000000800c224      0x588 /Users/imac/Develop/stm32f4/arm_gcc/gcc-arm-none-eabi-4_7-2013q3/bin/../lib/gcc/arm-none-eabi/4.7.4/../../../../arm-none-eabi/lib/armv7-m/libc.a(lib_a-gdtoa-gethex.o)
                0x000000000800c224                __gethex
 .text.__hexnan
                0x000000000800c7ac      0x2f0 /Users/imac/Develop/stm32f4/arm_gcc/gcc-arm-none-eabi-4_7-2013q3/bin/../lib/gcc/arm-none-eabi/4.7.4/../../../../arm-none-eabi/lib/armv7-m/libc.a(lib_a-gdtoa-hexnan.o)
                0x000000000800c7ac                __hexnan
 .text.memchr   0x000000000800ca9c      0x140 /Users/imac/Develop/stm32f4/arm_gcc/gcc-arm-none-eabi-4_7-2013q3/bin/../lib/gcc/arm-none-eabi/4.7.4/../../../../arm-none-eabi/lib/armv7-m/libc.a(lib_a-memchr.o)
                0x000000000800ca9c                memchr
 .text.memcpy   0x000000000800cbdc      0x15c /Users/imac/Develop/stm32f4/arm_gcc/gcc-arm-none-eabi-4_7-2013q3/bin/../lib/gcc/arm-none-eabi/4.7.4/../../../../arm-none-eabi/lib/armv7-m/libc.a(lib_a-memcpy.o)
                0x000000000800cbdc                memcpy
 .text._Balloc  0x000000000800cd38       0x4c /Users/imac/Develop/stm32f4/arm_gcc/gcc-arm-none-eabi-4_7-2013q3/bin/../lib/gcc/arm-none-eabi/4.7.4/../../../../arm-none-eabi/lib/armv7-m/libc.a(lib_a-mprec.o)
                0x000000000800cd38                _Balloc
 .text._Bfree   0x000000000800cd84       0x14 /Users/imac/Develop/stm32f4/arm_gcc/gcc-arm-none-eabi-4_7-2013q3/bin/../lib/gcc/arm-none-eabi/4.7.4/../../../../arm-none-eabi/lib/armv7-m/libc.a(lib_a-mprec.o)
                0x000000000800cd84                _Bfree
 .text.__multadd
                0x000000000800cd98       0xfc /Users/imac/Develop/stm32f4/arm_gcc/gcc-arm-none-eabi-4_7-2013q3/bin/../lib/gcc/arm-none-eabi/4.7.4/../../../../arm-none-eabi/lib/armv7-m/libc.a(lib_a-mprec.o)
                0x000000000800cd98                __multadd
 .text.__s2b    0x000000000800ce94      0x140 /Users/imac/Develop/stm32f4/arm_gcc/gcc-arm-none-eabi-4_7-2013q3/bin/../lib/gcc/arm-none-eabi/4.7.4/../../../../arm-none-eabi/lib/armv7-m/libc.a(lib_a-mprec.o)
                0x000000000800ce94                __s2b
 .text.__hi0bits
                0x000000000800cfd4       0x3c /Users/imac/Develop/stm32f4/arm_gcc/gcc-arm-none-eabi-4_7-2013q3/bin/../lib/gcc/arm-none-eabi/4.7.4/../../../../arm-none-eabi/lib/armv7-m/libc.a(lib_a-mprec.o)
                0x000000000800cfd4                __hi0bits
 .text.__lo0bits
                0x000000000800d010       0x5c /Users/imac/Develop/stm32f4/arm_gcc/gcc-arm-none-eabi-4_7-2013q3/bin/../lib/gcc/arm-none-eabi/4.7.4/../../../../arm-none-eabi/lib/armv7-m/libc.a(lib_a-mprec.o)
                0x000000000800d010                __lo0bits
 .text.__i2b    0x000000000800d06c       0x14 /Users/imac/Develop/stm32f4/arm_gcc/gcc-arm-none-eabi-4_7-2013q3/bin/../lib/gcc/arm-none-eabi/4.7.4/../../../../arm-none-eabi/lib/armv7-m/libc.a(lib_a-mprec.o)
                0x000000000800d06c                __i2b
 .text.__multiply
                0x000000000800d080      0x2d0 /Users/imac/Develop/stm32f4/arm_gcc/gcc-arm-none-eabi-4_7-2013q3/bin/../lib/gcc/arm-none-eabi/4.7.4/../../../../arm-none-eabi/lib/armv7-m/libc.a(lib_a-mprec.o)
                0x000000000800d080                __multiply
 .text.__pow5mult
                0x000000000800d350       0x94 /Users/imac/Develop/stm32f4/arm_gcc/gcc-arm-none-eabi-4_7-2013q3/bin/../lib/gcc/arm-none-eabi/4.7.4/../../../../arm-none-eabi/lib/armv7-m/libc.a(lib_a-mprec.o)
                0x000000000800d350                __pow5mult
 .text.__lshift
                0x000000000800d3e4      0x16c /Users/imac/Develop/stm32f4/arm_gcc/gcc-arm-none-eabi-4_7-2013q3/bin/../lib/gcc/arm-none-eabi/4.7.4/../../../../arm-none-eabi/lib/armv7-m/libc.a(lib_a-mprec.o)
                0x000000000800d3e4                __lshift
 .text.__mcmp   0x000000000800d550       0x5c /Users/imac/Develop/stm32f4/arm_gcc/gcc-arm-none-eabi-4_7-2013q3/bin/../lib/gcc/arm-none-eabi/4.7.4/../../../../arm-none-eabi/lib/armv7-m/libc.a(lib_a-mprec.o)
                0x000000000800d550                __mcmp
 .text.__mdiff  0x000000000800d5ac      0x218 /Users/imac/Develop/stm32f4/arm_gcc/gcc-arm-none-eabi-4_7-2013q3/bin/../lib/gcc/arm-none-eabi/4.7.4/../../../../arm-none-eabi/lib/armv7-m/libc.a(lib_a-mprec.o)
                0x000000000800d5ac                __mdiff
 .text.__ulp    0x000000000800d7c4       0x44 /Users/imac/Develop/stm32f4/arm_gcc/gcc-arm-none-eabi-4_7-2013q3/bin/../lib/gcc/arm-none-eabi/4.7.4/../../../../arm-none-eabi/lib/armv7-m/libc.a(lib_a-mprec.o)
                0x000000000800d7c4                __ulp
 .text.__b2d    0x000000000800d808       0xbc /Users/imac/Develop/stm32f4/arm_gcc/gcc-arm-none-eabi-4_7-2013q3/bin/../lib/gcc/arm-none-eabi/4.7.4/../../../../arm-none-eabi/lib/armv7-m/libc.a(lib_a-mprec.o)
                0x000000000800d808                __b2d
 .text.__d2b    0x000000000800d8c4       0xc0 /Users/imac/Develop/stm32f4/arm_gcc/gcc-arm-none-eabi-4_7-2013q3/bin/../lib/gcc/arm-none-eabi/4.7.4/../../../../arm-none-eabi/lib/armv7-m/libc.a(lib_a-mprec.o)
                0x000000000800d8c4                __d2b
 .text.__ratio  0x000000000800d984       0x54 /Users/imac/Develop/stm32f4/arm_gcc/gcc-arm-none-eabi-4_7-2013q3/bin/../lib/gcc/arm-none-eabi/4.7.4/../../../../arm-none-eabi/lib/armv7-m/libc.a(lib_a-mprec.o)
                0x000000000800d984                __ratio
 .text.__copybits
                0x000000000800d9d8       0xa0 /Users/imac/Develop/stm32f4/arm_gcc/gcc-arm-none-eabi-4_7-2013q3/bin/../lib/gcc/arm-none-eabi/4.7.4/../../../../arm-none-eabi/lib/armv7-m/libc.a(lib_a-mprec.o)
                0x000000000800d9d8                __copybits
 .text.__any_on
                0x000000000800da78       0x74 /Users/imac/Develop/stm32f4/arm_gcc/gcc-arm-none-eabi-4_7-2013q3/bin/../lib/gcc/arm-none-eabi/4.7.4/../../../../arm-none-eabi/lib/armv7-m/libc.a(lib_a-mprec.o)
                0x000000000800da78                __any_on
 .text._realloc_r
                0x000000000800daec      0x3ec /Users/imac/Develop/stm32f4/arm_gcc/gcc-arm-none-eabi-4_7-2013q3/bin/../lib/gcc/arm-none-eabi/4.7.4/../../../../arm-none-eabi/lib/armv7-m/libc.a(lib_a-reallocr.o)
                0x000000000800daec                _realloc_r
 .text.__ssprint_r
                0x000000000800ded8      0x100 /Users/imac/Develop/stm32f4/arm_gcc/gcc-arm-none-eabi-4_7-2013q3/bin/../lib/gcc/arm-none-eabi/4.7.4/../../../../arm-none-eabi/lib/armv7-m/libc.a(lib_a-svfiprintf.o)
                0x000000000800ded8                __ssprint_r
 .text._calloc_r
                0x000000000800dfd8       0x60 /Users/imac/Develop/stm32f4/arm_gcc/gcc-arm-none-eabi-4_7-2013q3/bin/../lib/gcc/arm-none-eabi/4.7.4/../../../../arm-none-eabi/lib/armv7-m/libc.a(lib_a-callocr.o)
                0x000000000800dfd8                _calloc_r
 .text.memmove  0x000000000800e038      0x1b0 /Users/imac/Develop/stm32f4/arm_gcc/gcc-arm-none-eabi-4_7-2013q3/bin/../lib/gcc/arm-none-eabi/4.7.4/../../../../arm-none-eabi/lib/armv7-m/libc.a(lib_a-memmove.o)
                0x000000000800e038                memmove
 *(.stub .gnu.linkonce.t.*)
 *(.rodata .rodata.* .gnu.linkonce.r.*)
 .rodata.str1.4
                0x000000000800e1e8       0x24 main.o
 .rodata.str1.4
                0x000000000800e20c      0x153 Ap_StrCmd.o
                                        0x158 (size before relaxing)
 *fill*         0x000000000800e35f        0x1 00
 .rodata.str1.4
                0x000000000800e360       0x13 Ap_StrCmd_List.o
                                         0x14 (size before relaxing)
 *fill*         0x000000000800e373        0x1 00
 .rodata.str1.4
                0x000000000800e374        0xb Ap_StrCmd_MOVE.o
                                         0x10 (size before relaxing)
 *fill*         0x000000000800e37f        0x1 00
 .rodata.str1.4
                0x000000000800e380        0x7 Lb_Util.o
                                          0x8 (size before relaxing)
 *fill*         0x000000000800e387        0x1 00
 .rodata.Virtual_Com_Port_StringVendor
                0x000000000800e388       0x28 usb_desc.o
                0x000000000800e388                Virtual_Com_Port_StringVendor
 .rodata.Virtual_Com_Port_DeviceDescriptor
                0x000000000800e3b0       0x14 usb_desc.o
                0x000000000800e3b0                Virtual_Com_Port_DeviceDescriptor
 .rodata.Virtual_Com_Port_StringLangID
                0x000000000800e3c4        0x4 usb_desc.o
                0x000000000800e3c4                Virtual_Com_Port_StringLangID
 .rodata.Virtual_Com_Port_StringProduct
                0x000000000800e3c8       0x34 usb_desc.o
                0x000000000800e3c8                Virtual_Com_Port_StringProduct
 .rodata.Virtual_Com_Port_ConfigDescriptor
                0x000000000800e3fc       0x44 usb_desc.o
                0x000000000800e3fc                Virtual_Com_Port_ConfigDescriptor
 .rodata._ctype_
                0x000000000800e440      0x104 /Users/imac/Develop/stm32f4/arm_gcc/gcc-arm-none-eabi-4_7-2013q3/bin/../lib/gcc/arm-none-eabi/4.7.4/../../../../arm-none-eabi/lib/armv7-m/libc.a(lib_a-ctype_.o)
                0x000000000800e440                _ctype_
 .rodata.str1.4
                0x000000000800e544        0x2 /Users/imac/Develop/stm32f4/arm_gcc/gcc-arm-none-eabi-4_7-2013q3/bin/../lib/gcc/arm-none-eabi/4.7.4/../../../../arm-none-eabi/lib/armv7-m/libc.a(lib_a-impure.o)
                                          0x4 (size before relaxing)
 *fill*         0x000000000800e546        0x2 00
 .rodata.basefix.6637
                0x000000000800e548       0x24 /Users/imac/Develop/stm32f4/arm_gcc/gcc-arm-none-eabi-4_7-2013q3/bin/../lib/gcc/arm-none-eabi/4.7.4/../../../../arm-none-eabi/lib/armv7-m/libc.a(lib_a-svfscanf.o)
 .rodata.str1.4
                0x000000000800e56c        0x5 /Users/imac/Develop/stm32f4/arm_gcc/gcc-arm-none-eabi-4_7-2013q3/bin/../lib/gcc/arm-none-eabi/4.7.4/../../../../arm-none-eabi/lib/armv7-m/libc.a(lib_a-svfscanf.o)
                                          0x8 (size before relaxing)
 *fill*         0x000000000800e571        0x3 00
 .rodata.str1.4
                0x000000000800e574        0xa /Users/imac/Develop/stm32f4/arm_gcc/gcc-arm-none-eabi-4_7-2013q3/bin/../lib/gcc/arm-none-eabi/4.7.4/../../../../arm-none-eabi/lib/armv7-m/libc.a(lib_a-locale.o)
                                         0x14 (size before relaxing)
 .rodata.str1.4
                0x0000000000000000        0x4 /Users/imac/Develop/stm32f4/arm_gcc/gcc-arm-none-eabi-4_7-2013q3/bin/../lib/gcc/arm-none-eabi/4.7.4/../../../../arm-none-eabi/lib/armv7-m/libc.a(lib_a-mbrtowc.o)
 *fill*         0x000000000800e57e        0x2 00
 .rodata.str1.4
                0x000000000800e580        0xf /Users/imac/Develop/stm32f4/arm_gcc/gcc-arm-none-eabi-4_7-2013q3/bin/../lib/gcc/arm-none-eabi/4.7.4/../../../../arm-none-eabi/lib/armv7-m/libc.a(lib_a-strtod.o)
                                         0x10 (size before relaxing)
 *fill*         0x000000000800e58f        0x1 00
 .rodata.tinytens
                0x000000000800e590       0x28 /Users/imac/Develop/stm32f4/arm_gcc/gcc-arm-none-eabi-4_7-2013q3/bin/../lib/gcc/arm-none-eabi/4.7.4/../../../../arm-none-eabi/lib/armv7-m/libc.a(lib_a-strtod.o)
 .rodata.str1.4
                0x000000000800e5b8       0x42 /Users/imac/Develop/stm32f4/arm_gcc/gcc-arm-none-eabi-4_7-2013q3/bin/../lib/gcc/arm-none-eabi/4.7.4/../../../../arm-none-eabi/lib/armv7-m/libc.a(lib_a-svfprintf.o)
                                         0x44 (size before relaxing)
 *fill*         0x000000000800e5fa        0x2 00
 .rodata.zeroes.6721
                0x000000000800e5fc       0x10 /Users/imac/Develop/stm32f4/arm_gcc/gcc-arm-none-eabi-4_7-2013q3/bin/../lib/gcc/arm-none-eabi/4.7.4/../../../../arm-none-eabi/lib/armv7-m/libc.a(lib_a-svfprintf.o)
 .rodata.blanks.6720
                0x000000000800e60c       0x10 /Users/imac/Develop/stm32f4/arm_gcc/gcc-arm-none-eabi-4_7-2013q3/bin/../lib/gcc/arm-none-eabi/4.7.4/../../../../arm-none-eabi/lib/armv7-m/libc.a(lib_a-svfprintf.o)
 .rodata.str1.4
                0x000000000800e61c       0x10 /Users/imac/Develop/stm32f4/arm_gcc/gcc-arm-none-eabi-4_7-2013q3/bin/../lib/gcc/arm-none-eabi/4.7.4/../../../../arm-none-eabi/lib/armv7-m/libc.a(lib_a-dtoa.o)
                                         0x14 (size before relaxing)
 .rodata.str1.4
                0x000000000800e62c       0x1c /Users/imac/Develop/stm32f4/arm_gcc/gcc-arm-none-eabi-4_7-2013q3/bin/../lib/gcc/arm-none-eabi/4.7.4/../../../../arm-none-eabi/lib/armv7-m/libc.a(lib_a-gdtoa-gethex.o)
 .rodata.p05.5242
                0x000000000800e648        0xc /Users/imac/Develop/stm32f4/arm_gcc/gcc-arm-none-eabi-4_7-2013q3/bin/../lib/gcc/arm-none-eabi/4.7.4/../../../../arm-none-eabi/lib/armv7-m/libc.a(lib_a-mprec.o)
 *fill*         0x000000000800e654        0x4 00
 .rodata.__mprec_tens
                0x000000000800e658       0xc8 /Users/imac/Develop/stm32f4/arm_gcc/gcc-arm-none-eabi-4_7-2013q3/bin/../lib/gcc/arm-none-eabi/4.7.4/../../../../arm-none-eabi/lib/armv7-m/libc.a(lib_a-mprec.o)
                0x000000000800e658                __mprec_tens
 .rodata.__mprec_bigtens
                0x000000000800e720       0x28 /Users/imac/Develop/stm32f4/arm_gcc/gcc-arm-none-eabi-4_7-2013q3/bin/../lib/gcc/arm-none-eabi/4.7.4/../../../../arm-none-eabi/lib/armv7-m/libc.a(lib_a-mprec.o)
                0x000000000800e720                __mprec_bigtens
 *(.glue_7 .glue_7t)
 .glue_7        0x0000000000000000        0x0 linker stubs
 .glue_7t       0x0000000000000000        0x0 linker stubs
                0x000000000800e748                . = ALIGN (0x4)

.vfp11_veneer   0x000000000800e748        0x0
 .vfp11_veneer  0x0000000000000000        0x0 linker stubs

.v4_bx          0x000000000800e748        0x0
 .v4_bx         0x0000000000000000        0x0 linker stubs

.iplt           0x000000000800e748        0x0
 .iplt          0x0000000000000000        0x0 main.o

.ARM.extab
 *(.ARM.extab* .gnu.linkonce.armextab.*)

.ARM            0x000000000800e748        0x8
                0x000000000800e748                __exidx_start = .
 *(.ARM.exidx*)
 .ARM.exidx     0x000000000800e748        0x8 /Users/imac/Develop/stm32f4/arm_gcc/gcc-arm-none-eabi-4_7-2013q3/bin/../lib/gcc/arm-none-eabi/4.7.4/armv7-m/libgcc.a(_divdi3.o)
 .ARM.exidx     0x000000000800e750        0x0 /Users/imac/Develop/stm32f4/arm_gcc/gcc-arm-none-eabi-4_7-2013q3/bin/../lib/gcc/arm-none-eabi/4.7.4/armv7-m/libgcc.a(_udivdi3.o)
                                          0x8 (size before relaxing)
                0x000000000800e750                __exidx_end = .
                0x000000000800e750                _etext = .
                0x000000000800e750                _sidata = _etext

.rel.dyn        0x000000000800e750        0x0
 .rel.iplt      0x0000000000000000        0x0 main.o

.data           0x0000000020000000      0x9ac load address 0x000000000800e750
                0x0000000020000000                . = .
                0x0000000020000000                . = ALIGN (0x4)
                0x0000000020000000                _sdata = .
                0x0000000020000000                . = ALIGN (0x80)
                0x0000000000000000                _isr_vectorsram_offs = (. - 0x20000000)
 *(.isr_vectorsram)
                0x0000000020000000                . = ALIGN (0x4)
 *(.ramfunc*)
                0x0000000020000000                . = ALIGN (0x4)
 *(.data .data.* .gnu.linkonce.d.*)
 .data.Virtual_Com_Port_StringSerial
                0x0000000020000000       0x1c usb_desc.o
                0x0000000020000000                Virtual_Com_Port_StringSerial
 .data.pEpInt_IN
                0x000000002000001c       0x1c usb_istr.o
                0x000000002000001c                pEpInt_IN
 .data.pEpInt_OUT
                0x0000000020000038       0x1c usb_istr.o
                0x0000000020000038                pEpInt_OUT
 .data.Config_Descriptor
                0x0000000020000054        0x8 usb_prop.o
                0x0000000020000054                Config_Descriptor
 .data.Device_Property
                0x000000002000005c       0x30 usb_prop.o
                0x000000002000005c                Device_Property
 .data.User_Standard_Requests
                0x000000002000008c       0x24 usb_prop.o
                0x000000002000008c                User_Standard_Requests
 .data.Device_Descriptor
                0x00000000200000b0        0x8 usb_prop.o
                0x00000000200000b0                Device_Descriptor
 .data.String_Descriptor
                0x00000000200000b8       0x20 usb_prop.o
                0x00000000200000b8                String_Descriptor
 .data.linecoding
                0x00000000200000d8        0x8 usb_prop.o
                0x00000000200000d8                linecoding
 .data.Device_Table
                0x00000000200000e0        0x4 usb_prop.o
                0x00000000200000e0                Device_Table
 .data.__ctype_ptr__
                0x00000000200000e4        0x4 /Users/imac/Develop/stm32f4/arm_gcc/gcc-arm-none-eabi-4_7-2013q3/bin/../lib/gcc/arm-none-eabi/4.7.4/../../../../arm-none-eabi/lib/armv7-m/libc.a(lib_a-ctype_.o)
                0x00000000200000e4                __ctype_ptr__
 .data.impure_data
                0x00000000200000e8      0x428 /Users/imac/Develop/stm32f4/arm_gcc/gcc-arm-none-eabi-4_7-2013q3/bin/../lib/gcc/arm-none-eabi/4.7.4/../../../../arm-none-eabi/lib/armv7-m/libc.a(lib_a-impure.o)
 .data._impure_ptr
                0x0000000020000510        0x4 /Users/imac/Develop/stm32f4/arm_gcc/gcc-arm-none-eabi-4_7-2013q3/bin/../lib/gcc/arm-none-eabi/4.7.4/../../../../arm-none-eabi/lib/armv7-m/libc.a(lib_a-impure.o)
                0x0000000020000510                _impure_ptr
 .data.lconv    0x0000000020000514       0x38 /Users/imac/Develop/stm32f4/arm_gcc/gcc-arm-none-eabi-4_7-2013q3/bin/../lib/gcc/arm-none-eabi/4.7.4/../../../../arm-none-eabi/lib/armv7-m/libc.a(lib_a-locale.o)
 .data.lc_ctype_charset
                0x000000002000054c       0x20 /Users/imac/Develop/stm32f4/arm_gcc/gcc-arm-none-eabi-4_7-2013q3/bin/../lib/gcc/arm-none-eabi/4.7.4/../../../../arm-none-eabi/lib/armv7-m/libc.a(lib_a-locale.o)
 .data.__mb_cur_max
                0x000000002000056c        0x4 /Users/imac/Develop/stm32f4/arm_gcc/gcc-arm-none-eabi-4_7-2013q3/bin/../lib/gcc/arm-none-eabi/4.7.4/../../../../arm-none-eabi/lib/armv7-m/libc.a(lib_a-locale.o)
                0x000000002000056c                __mb_cur_max
 .data.__malloc_av_
                0x0000000020000570      0x408 /Users/imac/Develop/stm32f4/arm_gcc/gcc-arm-none-eabi-4_7-2013q3/bin/../lib/gcc/arm-none-eabi/4.7.4/../../../../arm-none-eabi/lib/armv7-m/libc.a(lib_a-mallocr.o)
                0x0000000020000570                __malloc_av_
 .data.__malloc_trim_threshold
                0x0000000020000978        0x4 /Users/imac/Develop/stm32f4/arm_gcc/gcc-arm-none-eabi-4_7-2013q3/bin/../lib/gcc/arm-none-eabi/4.7.4/../../../../arm-none-eabi/lib/armv7-m/libc.a(lib_a-mallocr.o)
                0x0000000020000978                __malloc_trim_threshold
 .data.__malloc_sbrk_base
                0x000000002000097c        0x4 /Users/imac/Develop/stm32f4/arm_gcc/gcc-arm-none-eabi-4_7-2013q3/bin/../lib/gcc/arm-none-eabi/4.7.4/../../../../arm-none-eabi/lib/armv7-m/libc.a(lib_a-mallocr.o)
                0x000000002000097c                __malloc_sbrk_base
 .data.__mbtowc
                0x0000000020000980        0x4 /Users/imac/Develop/stm32f4/arm_gcc/gcc-arm-none-eabi-4_7-2013q3/bin/../lib/gcc/arm-none-eabi/4.7.4/../../../../arm-none-eabi/lib/armv7-m/libc.a(lib_a-mbtowc_r.o)
                0x0000000020000980                __mbtowc
 .data.fpi.5202
                0x0000000020000984       0x14 /Users/imac/Develop/stm32f4/arm_gcc/gcc-arm-none-eabi-4_7-2013q3/bin/../lib/gcc/arm-none-eabi/4.7.4/../../../../arm-none-eabi/lib/armv7-m/libc.a(lib_a-strtod.o)
 .data.fpinan.5238
                0x0000000020000998       0x14 /Users/imac/Develop/stm32f4/arm_gcc/gcc-arm-none-eabi-4_7-2013q3/bin/../lib/gcc/arm-none-eabi/4.7.4/../../../../arm-none-eabi/lib/armv7-m/libc.a(lib_a-strtod.o)
                0x00000000200009ac                . = ALIGN (0x4)
                0x00000000200009ac                _edata = .

.igot.plt       0x00000000200009ac        0x0 load address 0x000000000800f0fc
 .igot.plt      0x0000000000000000        0x0 main.o

.bss            0x0000000020000a00     0x135c load address 0x000000000800f200
                0x0000000020000a00                . = ALIGN (0x4)
                0x0000000020000a00                _sbss = .
 *(.bss .bss.*)
 .bss.Ap_StrCmd_EchoEnable
                0x0000000020000a00        0x1 Ap_StrCmd.o
                0x0000000020000a00                Ap_StrCmd_EchoEnable
 *fill*         0x0000000020000a01        0x3 00
 .bss.heap_end.4960
                0x0000000020000a04        0x4 Lb_Util.o
 .bss.StrPrintBufIndex
                0x0000000020000a08        0x4 Lb_Printf.o
                0x0000000020000a08                StrPrintBufIndex
 .bss.StrPrintMode
                0x0000000020000a0c        0x1 Lb_Printf.o
                0x0000000020000a0c                StrPrintMode
 *fill*         0x0000000020000a0d        0x3 00
 .bss.Timer_Tbl
                0x0000000020000a10       0xa0 Hw_Timer.o
 .bss.Hw_Timer_Counter
                0x0000000020000ab0        0x4 Hw_Timer.o
 .bss.Excute.4445
                0x0000000020000ab4        0x1 Hw_Timer.o
 *fill*         0x0000000020000ab5        0x1 00
 .bss.Tmr_Ctn   0x0000000020000ab6        0x2 Hw_Timer.o
 .bss.Cnt.4437  0x0000000020000ab8        0x1 Hw_Sonic.o
 *fill*         0x0000000020000ab9        0x3 00
 .bss.FrameCount.4891
                0x0000000020000abc        0x4 usb_endp.o
 .bss.wCNTR     0x0000000020000ac0        0x4 usb_istr.o
                0x0000000020000ac0                wCNTR
 .bss.bIntPackSOF
                0x0000000020000ac4        0x1 usb_istr.o
                0x0000000020000ac4                bIntPackSOF
 *fill*         0x0000000020000ac5        0x3 00
 .bss.esof_counter
                0x0000000020000ac8        0x4 usb_istr.o
                0x0000000020000ac8                esof_counter
 .bss.Request   0x0000000020000acc        0x1 usb_prop.o
                0x0000000020000acc                Request
 *fill*         0x0000000020000acd        0x3 00
 .bss.bDeviceState
                0x0000000020000ad0        0x4 usb_pwr.o
                0x0000000020000ad0                bDeviceState
 .bss.fSuspendEnabled
                0x0000000020000ad4        0x1 usb_pwr.o
                0x0000000020000ad4                fSuspendEnabled
 *fill*         0x0000000020000ad5        0x3 00
 .bss.remotewakeupon
                0x0000000020000ad8        0x4 usb_pwr.o
                0x0000000020000ad8                remotewakeupon
 .bss.USB_Tx_State
                0x0000000020000adc        0x1 hw_config.o
                0x0000000020000adc                USB_Tx_State
 *fill*         0x0000000020000add        0x3 00
 .bss.USART_Rx_ptr_in
                0x0000000020000ae0        0x4 hw_config.o
                0x0000000020000ae0                USART_Rx_ptr_in
 .bss.USART_Rx_ptr_out
                0x0000000020000ae4        0x4 hw_config.o
                0x0000000020000ae4                USART_Rx_ptr_out
 .bss.USART_Rx_length
                0x0000000020000ae8        0x4 hw_config.o
                0x0000000020000ae8                USART_Rx_length
 .bss.Data_Mul_MaxPacketSize
                0x0000000020000aec        0x1 usb_core.o
                0x0000000020000aec                Data_Mul_MaxPacketSize
 *fill*         0x0000000020000aed        0x3 00
 .bss.__malloc_max_total_mem
                0x0000000020000af0        0x4 /Users/imac/Develop/stm32f4/arm_gcc/gcc-arm-none-eabi-4_7-2013q3/bin/../lib/gcc/arm-none-eabi/4.7.4/../../../../arm-none-eabi/lib/armv7-m/libc.a(lib_a-mallocr.o)
                0x0000000020000af0                __malloc_max_total_mem
 .bss.__malloc_max_sbrked_mem
                0x0000000020000af4        0x4 /Users/imac/Develop/stm32f4/arm_gcc/gcc-arm-none-eabi-4_7-2013q3/bin/../lib/gcc/arm-none-eabi/4.7.4/../../../../arm-none-eabi/lib/armv7-m/libc.a(lib_a-mallocr.o)
                0x0000000020000af4                __malloc_max_sbrked_mem
 .bss.__malloc_top_pad
                0x0000000020000af8        0x4 /Users/imac/Develop/stm32f4/arm_gcc/gcc-arm-none-eabi-4_7-2013q3/bin/../lib/gcc/arm-none-eabi/4.7.4/../../../../arm-none-eabi/lib/armv7-m/libc.a(lib_a-mallocr.o)
                0x0000000020000af8                __malloc_top_pad
 .bss.__malloc_current_mallinfo
                0x0000000020000afc       0x28 /Users/imac/Develop/stm32f4/arm_gcc/gcc-arm-none-eabi-4_7-2013q3/bin/../lib/gcc/arm-none-eabi/4.7.4/../../../../arm-none-eabi/lib/armv7-m/libc.a(lib_a-mallocr.o)
                0x0000000020000afc                __malloc_current_mallinfo
 *(COMMON)
 COMMON         0x0000000020000b24      0x3fd Ap_StrCmd.o
                0x0000000020000b24                Ap_StrCmd_Dic_Ptr
                0x0000000020000e94                Ap_StrCmd_CmdStrExe
                0x0000000020000ed0                Ap_StrCmd_ChSize
                0x0000000020000ed2                Ap_StrCmd_CmdCheck
                0x0000000020000ed4                Ap_StrCmd_CmdStr
                0x0000000020000f10                Ap_StrCmd_DlyCheck
                0x0000000020000f14                Ap_StrCmd_PrintPtr
                0x0000000020000f18                Ap_StrCmd_Size
                0x0000000020000f1c                Ap_StrCmd_PutchPtr
                0x0000000020000f20                Ap_StrCmd_LoopCheck
 *fill*         0x0000000020000f21        0x3 00
 COMMON         0x0000000020000f24      0x172 Ap_StrCmd_Q.o
                0x0000000020000f24                Ap_StrCmd_Q_Start
                0x0000000020000f28                Ap_StrCmd_Q_Buffer
                0x0000000020001090                Ap_StrCmd_Q_End
                0x0000000020001094                Ap_StrCmd_Q_Size
 *fill*         0x0000000020001096        0x2 00
 COMMON         0x0000000020001098        0x4 Lb_Printf.o
                0x0000000020001098                pStrPrintBuf
 COMMON         0x000000002000109c       0x48 Hw_Uart.o
                0x000000002000109c                Hw_Uart_Ch
 COMMON         0x00000000200010e4      0x116 Hw_Uart_Q.o
                0x00000000200010e4                Hw_Uart_Q_Buffer
                0x00000000200011cc                Hw_Uart_Q_Size
                0x00000000200011dc                Hw_Uart_Q_End
                0x00000000200011ec                Hw_Uart_Q_Start
 *fill*         0x00000000200011fa        0x6 00
 COMMON         0x0000000020001200      0x190 Hw_ISR.o
                0x0000000020001200                Hw_ISR_VectorTable
 COMMON         0x0000000020001390        0x4 Hw_VCom.o
                0x0000000020001390                Hw_VCom_RxdFuncPtr
 COMMON         0x0000000020001394        0xc Hw_DcMotor.o
                0x0000000020001394                Hw_DcMotor_State
 COMMON         0x00000000200013a0       0x14 Hw_Sonic.o
                0x00000000200013a0                Hw_Sonic_Log
 COMMON         0x00000000200013b4       0x40 usb_endp.o
                0x00000000200013b4                USB_Rx_Buffer
 COMMON         0x00000000200013f4        0x2 usb_istr.o
                0x00000000200013f4                wIstr
 *fill*         0x00000000200013f6        0x2 00
 COMMON         0x00000000200013f8       0x24 usb_pwr.o
                0x00000000200013f8                ResumeS
                0x00000000200013fc                EP
 COMMON         0x000000002000141c      0x800 hw_config.o
                0x000000002000141c                USART_Rx_Buffer
 COMMON         0x0000000020001c1c        0x2 usb_core.o
                0x0000000020001c1c                StatusInfo
 *fill*         0x0000000020001c1e        0x2 00
 COMMON         0x0000000020001c20       0x32 usb_init.o
                0x0000000020001c20                SaveState
                0x0000000020001c24                pProperty
                0x0000000020001c28                EPindex
                0x0000000020001c2c                Device_Info
                0x0000000020001c48                pUser_Standard_Requests
                0x0000000020001c4c                pInformation
                0x0000000020001c50                wInterrupt_Mask
 COMMON         0x0000000020001c52        0x4 usb_int.o
                0x0000000020001c52                SaveRState
                0x0000000020001c54                SaveTState
 *fill*         0x0000000020001c56        0x2 00
 COMMON         0x0000000020001c58        0x4 /Users/imac/Develop/stm32f4/arm_gcc/gcc-arm-none-eabi-4_7-2013q3/bin/../lib/gcc/arm-none-eabi/4.7.4/../../../../arm-none-eabi/lib/armv7-m/libc.a(lib_a-reent.o)
                0x0000000020001c58                errno
 COMMON         0x0000000020001c5c      0x100 /Users/imac/Develop/stm32f4/arm_gcc/gcc-arm-none-eabi-4_7-2013q3/bin/../lib/gcc/arm-none-eabi/4.7.4/../../../../arm-none-eabi/lib/armv7-m/libc.a(lib_a-gdtoa-gethex.o)
                0x0000000020001c5c                __hexdig
                0x0000000020001d5c                . = ALIGN (0x4)
                0x0000000020001d5c                _ebss = .
                0x0000000020001d5c                PROVIDE (end, _ebss)
                0x0000000020001d5c                PROVIDE (_end, _ebss)
                0x0000000020001d5c                . = ALIGN (0x4)
                0x0000000020001e00                . = ALIGN (0x100)

._usrstack      0x0000000020001d5c      0x100 load address 0x000000000801055c
                0x0000000020001d5c                . = ALIGN (0x4)
                0x0000000020001d5c                _susrstack = .
                0x0000000020001e5c                . = (. + _Minimum_Stack_Size)
 *fill*         0x0000000020001d5c      0x100 00
                0x0000000020001e5c                . = ALIGN (0x4)
                0x0000000020001e5c                _eusrstack = .

.ARM.attributes
                0x0000000000000000       0x33
 *(.ARM.attributes)
 .ARM.attributes
                0x0000000000000000       0x33 main.o
 .ARM.attributes
                0x0000000000000033       0x33 Ap.o
 .ARM.attributes
                0x0000000000000066       0x33 Ap_StrCmd.o
 .ARM.attributes
                0x0000000000000099       0x33 Ap_StrCmd_Q.o
 .ARM.attributes
                0x00000000000000cc       0x33 Ap_StrCmd_List.o
 .ARM.attributes
                0x00000000000000ff       0x33 Ap_StrCmd_MOVE.o
 .ARM.attributes
                0x0000000000000132       0x33 Lb_Util.o
 .ARM.attributes
                0x0000000000000165       0x33 Lb_Printf.o
 .ARM.attributes
                0x0000000000000198       0x33 Hw_StartUp.o
 .ARM.attributes
                0x00000000000001cb       0x33 Hw.o
 .ARM.attributes
                0x00000000000001fe       0x33 Hw_Uart.o
 .ARM.attributes
                0x0000000000000231       0x33 Hw_PLL.o
 .ARM.attributes
                0x0000000000000264       0x33 Hw_Led.o
 .ARM.attributes
                0x0000000000000297       0x33 Hw_Uart_Q.o
 .ARM.attributes
                0x00000000000002ca       0x33 Hw_ISR.o
 .ARM.attributes
                0x00000000000002fd       0x33 Hw_Timer.o
 .ARM.attributes
                0x0000000000000330       0x33 Hw_VCom.o
 .ARM.attributes
                0x0000000000000363       0x33 Hw_Adc.o
 .ARM.attributes
                0x0000000000000396       0x33 Hw_DcMotor.o
 .ARM.attributes
                0x00000000000003c9       0x33 Hw_Pwm.o
 .ARM.attributes
                0x00000000000003fc       0x33 Hw_Sonic.o
 .ARM.attributes
                0x000000000000042f       0x33 usb_desc.o
 .ARM.attributes
                0x0000000000000462       0x33 usb_endp.o
 .ARM.attributes
                0x0000000000000495       0x33 usb_istr.o
 .ARM.attributes
                0x00000000000004c8       0x33 usb_prop.o
 .ARM.attributes
                0x00000000000004fb       0x33 usb_pwr.o
 .ARM.attributes
                0x000000000000052e       0x33 hw_config.o
 .ARM.attributes
                0x0000000000000561       0x33 usb_core.o
 .ARM.attributes
                0x0000000000000594       0x33 usb_init.o
 .ARM.attributes
                0x00000000000005c7       0x33 usb_mem.o
 .ARM.attributes
                0x00000000000005fa       0x33 usb_regs.o
 .ARM.attributes
                0x000000000000062d       0x33 usb_sil.o
 .ARM.attributes
                0x0000000000000660       0x33 usb_int.o
 .ARM.attributes
                0x0000000000000693       0x2d /Users/imac/Develop/stm32f4/arm_gcc/gcc-arm-none-eabi-4_7-2013q3/bin/../lib/gcc/arm-none-eabi/4.7.4/../../../../arm-none-eabi/lib/armv7-m/libc.a(lib_a-ctype_.o)
 .ARM.attributes
                0x00000000000006c0       0x2d /Users/imac/Develop/stm32f4/arm_gcc/gcc-arm-none-eabi-4_7-2013q3/bin/../lib/gcc/arm-none-eabi/4.7.4/../../../../arm-none-eabi/lib/armv7-m/libc.a(lib_a-errno.o)
 .ARM.attributes
                0x00000000000006ed       0x2d /Users/imac/Develop/stm32f4/arm_gcc/gcc-arm-none-eabi-4_7-2013q3/bin/../lib/gcc/arm-none-eabi/4.7.4/../../../../arm-none-eabi/lib/armv7-m/libc.a(lib_a-impure.o)
 .ARM.attributes
                0x000000000000071a       0x2d /Users/imac/Develop/stm32f4/arm_gcc/gcc-arm-none-eabi-4_7-2013q3/bin/../lib/gcc/arm-none-eabi/4.7.4/../../../../arm-none-eabi/lib/armv7-m/libc.a(lib_a-sscanf.o)
 .ARM.attributes
                0x0000000000000747       0x2d /Users/imac/Develop/stm32f4/arm_gcc/gcc-arm-none-eabi-4_7-2013q3/bin/../lib/gcc/arm-none-eabi/4.7.4/../../../../arm-none-eabi/lib/armv7-m/libc.a(lib_a-stdio.o)
 .ARM.attributes
                0x0000000000000774       0x2d /Users/imac/Develop/stm32f4/arm_gcc/gcc-arm-none-eabi-4_7-2013q3/bin/../lib/gcc/arm-none-eabi/4.7.4/../../../../arm-none-eabi/lib/armv7-m/libc.a(lib_a-strcmp.o)
 .ARM.attributes
                0x00000000000007a1       0x2d /Users/imac/Develop/stm32f4/arm_gcc/gcc-arm-none-eabi-4_7-2013q3/bin/../lib/gcc/arm-none-eabi/4.7.4/../../../../arm-none-eabi/lib/armv7-m/libc.a(lib_a-strlen.o)
 .ARM.attributes
                0x00000000000007ce       0x2d /Users/imac/Develop/stm32f4/arm_gcc/gcc-arm-none-eabi-4_7-2013q3/bin/../lib/gcc/arm-none-eabi/4.7.4/../../../../arm-none-eabi/lib/armv7-m/libc.a(lib_a-strncmp.o)
 .ARM.attributes
                0x00000000000007fb       0x2d /Users/imac/Develop/stm32f4/arm_gcc/gcc-arm-none-eabi-4_7-2013q3/bin/../lib/gcc/arm-none-eabi/4.7.4/../../../../arm-none-eabi/lib/armv7-m/libc.a(lib_a-strtok.o)
 .ARM.attributes
                0x0000000000000828       0x2d /Users/imac/Develop/stm32f4/arm_gcc/gcc-arm-none-eabi-4_7-2013q3/bin/../lib/gcc/arm-none-eabi/4.7.4/../../../../arm-none-eabi/lib/armv7-m/libc.a(lib_a-strtok_r.o)
 .ARM.attributes
                0x0000000000000855       0x2d /Users/imac/Develop/stm32f4/arm_gcc/gcc-arm-none-eabi-4_7-2013q3/bin/../lib/gcc/arm-none-eabi/4.7.4/../../../../arm-none-eabi/lib/armv7-m/libc.a(lib_a-svfscanf.o)
 .ARM.attributes
                0x0000000000000882       0x2d /Users/imac/Develop/stm32f4/arm_gcc/gcc-arm-none-eabi-4_7-2013q3/bin/../lib/gcc/arm-none-eabi/4.7.4/../../../../arm-none-eabi/lib/armv7-m/libc.a(lib_a-findfp.o)
 .ARM.attributes
                0x00000000000008af       0x2d /Users/imac/Develop/stm32f4/arm_gcc/gcc-arm-none-eabi-4_7-2013q3/bin/../lib/gcc/arm-none-eabi/4.7.4/../../../../arm-none-eabi/lib/armv7-m/libc.a(lib_a-iswspace.o)
 .ARM.attributes
                0x00000000000008dc       0x2d /Users/imac/Develop/stm32f4/arm_gcc/gcc-arm-none-eabi-4_7-2013q3/bin/../lib/gcc/arm-none-eabi/4.7.4/../../../../arm-none-eabi/lib/armv7-m/libc.a(lib_a-locale.o)
 .ARM.attributes
                0x0000000000000909       0x2d /Users/imac/Develop/stm32f4/arm_gcc/gcc-arm-none-eabi-4_7-2013q3/bin/../lib/gcc/arm-none-eabi/4.7.4/../../../../arm-none-eabi/lib/armv7-m/libc.a(lib_a-mallocr.o)
 .ARM.attributes
                0x0000000000000936       0x2d /Users/imac/Develop/stm32f4/arm_gcc/gcc-arm-none-eabi-4_7-2013q3/bin/../lib/gcc/arm-none-eabi/4.7.4/../../../../arm-none-eabi/lib/armv7-m/libc.a(lib_a-mbrtowc.o)
 .ARM.attributes
                0x0000000000000963       0x2d /Users/imac/Develop/stm32f4/arm_gcc/gcc-arm-none-eabi-4_7-2013q3/bin/../lib/gcc/arm-none-eabi/4.7.4/../../../../arm-none-eabi/lib/armv7-m/libc.a(lib_a-mbtowc_r.o)
 .ARM.attributes
                0x0000000000000990       0x2d /Users/imac/Develop/stm32f4/arm_gcc/gcc-arm-none-eabi-4_7-2013q3/bin/../lib/gcc/arm-none-eabi/4.7.4/../../../../arm-none-eabi/lib/armv7-m/libc.a(lib_a-memset.o)
 .ARM.attributes
                0x00000000000009bd       0x2d /Users/imac/Develop/stm32f4/arm_gcc/gcc-arm-none-eabi-4_7-2013q3/bin/../lib/gcc/arm-none-eabi/4.7.4/../../../../arm-none-eabi/lib/armv7-m/libc.a(lib_a-mlock.o)
 .ARM.attributes
                0x00000000000009ea       0x2d /Users/imac/Develop/stm32f4/arm_gcc/gcc-arm-none-eabi-4_7-2013q3/bin/../lib/gcc/arm-none-eabi/4.7.4/../../../../arm-none-eabi/lib/armv7-m/libc.a(lib_a-reent.o)
 .ARM.attributes
                0x0000000000000a17       0x2d /Users/imac/Develop/stm32f4/arm_gcc/gcc-arm-none-eabi-4_7-2013q3/bin/../lib/gcc/arm-none-eabi/4.7.4/../../../../arm-none-eabi/lib/armv7-m/libc.a(lib_a-s_fpclassify.o)
 .ARM.attributes
                0x0000000000000a44       0x2d /Users/imac/Develop/stm32f4/arm_gcc/gcc-arm-none-eabi-4_7-2013q3/bin/../lib/gcc/arm-none-eabi/4.7.4/../../../../arm-none-eabi/lib/armv7-m/libc.a(lib_a-sbrkr.o)
 .ARM.attributes
                0x0000000000000a71       0x2d /Users/imac/Develop/stm32f4/arm_gcc/gcc-arm-none-eabi-4_7-2013q3/bin/../lib/gcc/arm-none-eabi/4.7.4/../../../../arm-none-eabi/lib/armv7-m/libc.a(lib_a-sccl.o)
 .ARM.attributes
                0x0000000000000a9e       0x2d /Users/imac/Develop/stm32f4/arm_gcc/gcc-arm-none-eabi-4_7-2013q3/bin/../lib/gcc/arm-none-eabi/4.7.4/../../../../arm-none-eabi/lib/armv7-m/libc.a(lib_a-sf_nan.o)
 .ARM.attributes
                0x0000000000000acb       0x2d /Users/imac/Develop/stm32f4/arm_gcc/gcc-arm-none-eabi-4_7-2013q3/bin/../lib/gcc/arm-none-eabi/4.7.4/../../../../arm-none-eabi/lib/armv7-m/libc.a(lib_a-sprintf.o)
 .ARM.attributes
                0x0000000000000af8       0x2d /Users/imac/Develop/stm32f4/arm_gcc/gcc-arm-none-eabi-4_7-2013q3/bin/../lib/gcc/arm-none-eabi/4.7.4/../../../../arm-none-eabi/lib/armv7-m/libc.a(lib_a-strtod.o)
 .ARM.attributes
                0x0000000000000b25       0x2d /Users/imac/Develop/stm32f4/arm_gcc/gcc-arm-none-eabi-4_7-2013q3/bin/../lib/gcc/arm-none-eabi/4.7.4/../../../../arm-none-eabi/lib/armv7-m/libc.a(lib_a-strtol.o)
 .ARM.attributes
                0x0000000000000b52       0x2d /Users/imac/Develop/stm32f4/arm_gcc/gcc-arm-none-eabi-4_7-2013q3/bin/../lib/gcc/arm-none-eabi/4.7.4/../../../../arm-none-eabi/lib/armv7-m/libc.a(lib_a-strtoll_r.o)
 .ARM.attributes
                0x0000000000000b7f       0x2d /Users/imac/Develop/stm32f4/arm_gcc/gcc-arm-none-eabi-4_7-2013q3/bin/../lib/gcc/arm-none-eabi/4.7.4/../../../../arm-none-eabi/lib/armv7-m/libc.a(lib_a-strtoul.o)
 .ARM.attributes
                0x0000000000000bac       0x2d /Users/imac/Develop/stm32f4/arm_gcc/gcc-arm-none-eabi-4_7-2013q3/bin/../lib/gcc/arm-none-eabi/4.7.4/../../../../arm-none-eabi/lib/armv7-m/libc.a(lib_a-strtoull_r.o)
 .ARM.attributes
                0x0000000000000bd9       0x2d /Users/imac/Develop/stm32f4/arm_gcc/gcc-arm-none-eabi-4_7-2013q3/bin/../lib/gcc/arm-none-eabi/4.7.4/../../../../arm-none-eabi/lib/armv7-m/libc.a(lib_a-svfiscanf.o)
 .ARM.attributes
                0x0000000000000c06       0x2d /Users/imac/Develop/stm32f4/arm_gcc/gcc-arm-none-eabi-4_7-2013q3/bin/../lib/gcc/arm-none-eabi/4.7.4/../../../../arm-none-eabi/lib/armv7-m/libc.a(lib_a-svfprintf.o)
 .ARM.attributes
                0x0000000000000c33       0x2d /Users/imac/Develop/stm32f4/arm_gcc/gcc-arm-none-eabi-4_7-2013q3/bin/../lib/gcc/arm-none-eabi/4.7.4/../../../../arm-none-eabi/lib/armv7-m/libc.a(lib_a-ungetc.o)
 .ARM.attributes
                0x0000000000000c60       0x2d /Users/imac/Develop/stm32f4/arm_gcc/gcc-arm-none-eabi-4_7-2013q3/bin/../lib/gcc/arm-none-eabi/4.7.4/../../../../arm-none-eabi/lib/armv7-m/libc.a(lib_a-dtoa.o)
 .ARM.attributes
                0x0000000000000c8d       0x2d /Users/imac/Develop/stm32f4/arm_gcc/gcc-arm-none-eabi-4_7-2013q3/bin/../lib/gcc/arm-none-eabi/4.7.4/../../../../arm-none-eabi/lib/armv7-m/libc.a(lib_a-freer.o)
 .ARM.attributes
                0x0000000000000cba       0x2d /Users/imac/Develop/stm32f4/arm_gcc/gcc-arm-none-eabi-4_7-2013q3/bin/../lib/gcc/arm-none-eabi/4.7.4/../../../../arm-none-eabi/lib/armv7-m/libc.a(lib_a-gdtoa-gethex.o)
 .ARM.attributes
                0x0000000000000ce7       0x2d /Users/imac/Develop/stm32f4/arm_gcc/gcc-arm-none-eabi-4_7-2013q3/bin/../lib/gcc/arm-none-eabi/4.7.4/../../../../arm-none-eabi/lib/armv7-m/libc.a(lib_a-gdtoa-hexnan.o)
 .ARM.attributes
                0x0000000000000d14       0x2d /Users/imac/Develop/stm32f4/arm_gcc/gcc-arm-none-eabi-4_7-2013q3/bin/../lib/gcc/arm-none-eabi/4.7.4/../../../../arm-none-eabi/lib/armv7-m/libc.a(lib_a-memchr.o)
 .ARM.attributes
                0x0000000000000d41       0x2d /Users/imac/Develop/stm32f4/arm_gcc/gcc-arm-none-eabi-4_7-2013q3/bin/../lib/gcc/arm-none-eabi/4.7.4/../../../../arm-none-eabi/lib/armv7-m/libc.a(lib_a-memcpy.o)
 .ARM.attributes
                0x0000000000000d6e       0x2d /Users/imac/Develop/stm32f4/arm_gcc/gcc-arm-none-eabi-4_7-2013q3/bin/../lib/gcc/arm-none-eabi/4.7.4/../../../../arm-none-eabi/lib/armv7-m/libc.a(lib_a-mprec.o)
 .ARM.attributes
                0x0000000000000d9b       0x2d /Users/imac/Develop/stm32f4/arm_gcc/gcc-arm-none-eabi-4_7-2013q3/bin/../lib/gcc/arm-none-eabi/4.7.4/../../../../arm-none-eabi/lib/armv7-m/libc.a(lib_a-reallocr.o)
 .ARM.attributes
                0x0000000000000dc8       0x2d /Users/imac/Develop/stm32f4/arm_gcc/gcc-arm-none-eabi-4_7-2013q3/bin/../lib/gcc/arm-none-eabi/4.7.4/../../../../arm-none-eabi/lib/armv7-m/libc.a(lib_a-svfiprintf.o)
 .ARM.attributes
                0x0000000000000df5       0x2d /Users/imac/Develop/stm32f4/arm_gcc/gcc-arm-none-eabi-4_7-2013q3/bin/../lib/gcc/arm-none-eabi/4.7.4/../../../../arm-none-eabi/lib/armv7-m/libc.a(lib_a-callocr.o)
 .ARM.attributes
                0x0000000000000e22       0x2d /Users/imac/Develop/stm32f4/arm_gcc/gcc-arm-none-eabi-4_7-2013q3/bin/../lib/gcc/arm-none-eabi/4.7.4/../../../../arm-none-eabi/lib/armv7-m/libc.a(lib_a-memmove.o)
 .ARM.attributes
                0x0000000000000e4f       0x1d /Users/imac/Develop/stm32f4/arm_gcc/gcc-arm-none-eabi-4_7-2013q3/bin/../lib/gcc/arm-none-eabi/4.7.4/armv7-m/libgcc.a(_arm_addsubdf3.o)
 .ARM.attributes
                0x0000000000000e6c       0x1d /Users/imac/Develop/stm32f4/arm_gcc/gcc-arm-none-eabi-4_7-2013q3/bin/../lib/gcc/arm-none-eabi/4.7.4/armv7-m/libgcc.a(_arm_muldivdf3.o)
 .ARM.attributes
                0x0000000000000e89       0x1d /Users/imac/Develop/stm32f4/arm_gcc/gcc-arm-none-eabi-4_7-2013q3/bin/../lib/gcc/arm-none-eabi/4.7.4/armv7-m/libgcc.a(_arm_cmpdf2.o)
 .ARM.attributes
                0x0000000000000ea6       0x1d /Users/imac/Develop/stm32f4/arm_gcc/gcc-arm-none-eabi-4_7-2013q3/bin/../lib/gcc/arm-none-eabi/4.7.4/armv7-m/libgcc.a(_arm_fixdfsi.o)
 .ARM.attributes
                0x0000000000000ec3       0x1d /Users/imac/Develop/stm32f4/arm_gcc/gcc-arm-none-eabi-4_7-2013q3/bin/../lib/gcc/arm-none-eabi/4.7.4/armv7-m/libgcc.a(_arm_fixunsdfsi.o)
 .ARM.attributes
                0x0000000000000ee0       0x1d /Users/imac/Develop/stm32f4/arm_gcc/gcc-arm-none-eabi-4_7-2013q3/bin/../lib/gcc/arm-none-eabi/4.7.4/armv7-m/libgcc.a(_arm_truncdfsf2.o)
 .ARM.attributes
                0x0000000000000efd       0x1d /Users/imac/Develop/stm32f4/arm_gcc/gcc-arm-none-eabi-4_7-2013q3/bin/../lib/gcc/arm-none-eabi/4.7.4/armv7-m/libgcc.a(_aeabi_uldivmod.o)
 .ARM.attributes
                0x0000000000000f1a       0x2d /Users/imac/Develop/stm32f4/arm_gcc/gcc-arm-none-eabi-4_7-2013q3/bin/../lib/gcc/arm-none-eabi/4.7.4/armv7-m/libgcc.a(bpabi.o)
 .ARM.attributes
                0x0000000000000f47       0x1d /Users/imac/Develop/stm32f4/arm_gcc/gcc-arm-none-eabi-4_7-2013q3/bin/../lib/gcc/arm-none-eabi/4.7.4/armv7-m/libgcc.a(_dvmd_tls.o)
 .ARM.attributes
                0x0000000000000f64       0x2d /Users/imac/Develop/stm32f4/arm_gcc/gcc-arm-none-eabi-4_7-2013q3/bin/../lib/gcc/arm-none-eabi/4.7.4/armv7-m/libgcc.a(_divdi3.o)
 .ARM.attributes
                0x0000000000000f91       0x2d /Users/imac/Develop/stm32f4/arm_gcc/gcc-arm-none-eabi-4_7-2013q3/bin/../lib/gcc/arm-none-eabi/4.7.4/armv7-m/libgcc.a(_udivdi3.o)
                0x0000000000000400                __Stack_Size = 0x400
                0x0000000000000400                PROVIDE (_Stack_Size, __Stack_Size)
                0x0000000020004c00                __Stack_Init = (_estack - __Stack_Size)
                0x0000000020004c00                PROVIDE (_Stack_Init, __Stack_Init)
OUTPUT(main.elf elf32-littlearm)

.debug_info     0x0000000000000000     0x858d
 .debug_info    0x0000000000000000      0x1f4 main.o
 .debug_info    0x00000000000001f4       0x91 Ap.o
 .debug_info    0x0000000000000285      0xf2b Ap_StrCmd.o
 .debug_info    0x00000000000011b0      0x2d4 Ap_StrCmd_Q.o
 .debug_info    0x0000000000001484       0xb4 Ap_StrCmd_List.o
 .debug_info    0x0000000000001538      0x1db Ap_StrCmd_MOVE.o
 .debug_info    0x0000000000001713      0x2e1 Lb_Util.o
 .debug_info    0x00000000000019f4      0x9b8 Lb_Printf.o
 .debug_info    0x00000000000023ac      0x14a Hw_StartUp.o
 .debug_info    0x00000000000024f6      0x15c Hw.o
 .debug_info    0x0000000000002652      0x674 Hw_Uart.o
 .debug_info    0x0000000000002cc6       0x7e Hw_PLL.o
 .debug_info    0x0000000000002d44      0x17c Hw_Led.o
 .debug_info    0x0000000000002ec0      0x282 Hw_Uart_Q.o
 .debug_info    0x0000000000003142      0x160 Hw_ISR.o
 .debug_info    0x00000000000032a2      0x3fa Hw_Timer.o
 .debug_info    0x000000000000369c      0x199 Hw_VCom.o
 .debug_info    0x0000000000003835      0x172 Hw_Adc.o
 .debug_info    0x00000000000039a7      0x3d9 Hw_DcMotor.o
 .debug_info    0x0000000000003d80      0x1b8 Hw_Pwm.o
 .debug_info    0x0000000000003f38      0x5fd Hw_Sonic.o
 .debug_info    0x0000000000004535      0x154 usb_desc.o
 .debug_info    0x0000000000004689      0x22f usb_endp.o
 .debug_info    0x00000000000048b8      0x372 usb_istr.o
 .debug_info    0x0000000000004c2a      0xad9 usb_prop.o
 .debug_info    0x0000000000005703      0x34a usb_pwr.o
 .debug_info    0x0000000000005a4d      0x680 hw_config.o
 .debug_info    0x00000000000060cd      0xddb usb_core.o
 .debug_info    0x0000000000006ea8      0x46d usb_init.o
 .debug_info    0x0000000000007315      0x194 usb_mem.o
 .debug_info    0x00000000000074a9      0xd92 usb_regs.o
 .debug_info    0x000000000000823b      0x1b9 usb_sil.o
 .debug_info    0x00000000000083f4      0x199 usb_int.o

.debug_abbrev   0x0000000000000000     0x2fcb
 .debug_abbrev  0x0000000000000000       0xfa main.o
 .debug_abbrev  0x00000000000000fa       0x4d Ap.o
 .debug_abbrev  0x0000000000000147      0x40f Ap_StrCmd.o
 .debug_abbrev  0x0000000000000556      0x168 Ap_StrCmd_Q.o
 .debug_abbrev  0x00000000000006be       0x59 Ap_StrCmd_List.o
 .debug_abbrev  0x0000000000000717      0x103 Ap_StrCmd_MOVE.o
 .debug_abbrev  0x000000000000081a      0x1c4 Lb_Util.o
 .debug_abbrev  0x00000000000009de      0x32c Lb_Printf.o
 .debug_abbrev  0x0000000000000d0a       0xd0 Hw_StartUp.o
 .debug_abbrev  0x0000000000000dda       0xf1 Hw.o
 .debug_abbrev  0x0000000000000ecb      0x2bb Hw_Uart.o
 .debug_abbrev  0x0000000000001186       0x44 Hw_PLL.o
 .debug_abbrev  0x00000000000011ca      0x103 Hw_Led.o
 .debug_abbrev  0x00000000000012cd      0x130 Hw_Uart_Q.o
 .debug_abbrev  0x00000000000013fd       0xd1 Hw_ISR.o
 .debug_abbrev  0x00000000000014ce      0x1ef Hw_Timer.o
 .debug_abbrev  0x00000000000016bd      0x121 Hw_VCom.o
 .debug_abbrev  0x00000000000017de      0x118 Hw_Adc.o
 .debug_abbrev  0x00000000000018f6      0x1ad Hw_DcMotor.o
 .debug_abbrev  0x0000000000001aa3      0x127 Hw_Pwm.o
 .debug_abbrev  0x0000000000001bca      0x22a Hw_Sonic.o
 .debug_abbrev  0x0000000000001df4       0x5d usb_desc.o
 .debug_abbrev  0x0000000000001e51       0xf2 usb_endp.o
 .debug_abbrev  0x0000000000001f43      0x138 usb_istr.o
 .debug_abbrev  0x000000000000207b      0x214 usb_prop.o
 .debug_abbrev  0x000000000000228f      0x18b usb_pwr.o
 .debug_abbrev  0x000000000000241a      0x2c2 hw_config.o
 .debug_abbrev  0x00000000000026dc      0x383 usb_core.o
 .debug_abbrev  0x0000000000002a5f      0x10a usb_init.o
 .debug_abbrev  0x0000000000002b69       0x96 usb_mem.o
 .debug_abbrev  0x0000000000002bff      0x227 usb_regs.o
 .debug_abbrev  0x0000000000002e26       0xc7 usb_sil.o
 .debug_abbrev  0x0000000000002eed       0xde usb_int.o

.debug_loc      0x0000000000000000     0x641a
 .debug_loc     0x0000000000000000       0xc1 main.o
 .debug_loc     0x00000000000000c1       0x20 Ap.o
 .debug_loc     0x00000000000000e1      0x97f Ap_StrCmd.o
 .debug_loc     0x0000000000000a60      0x1b9 Ap_StrCmd_Q.o
 .debug_loc     0x0000000000000c19       0x20 Ap_StrCmd_List.o
 .debug_loc     0x0000000000000c39       0xec Ap_StrCmd_MOVE.o
 .debug_loc     0x0000000000000d25      0x293 Lb_Util.o
 .debug_loc     0x0000000000000fb8     0x175e Lb_Printf.o
 .debug_loc     0x0000000000002716       0x6a Hw_StartUp.o
 .debug_loc     0x0000000000002780       0xbf Hw.o
 .debug_loc     0x000000000000283f      0x633 Hw_Uart.o
 .debug_loc     0x0000000000002e72       0xa2 Hw_Led.o
 .debug_loc     0x0000000000002f14      0x26e Hw_Uart_Q.o
 .debug_loc     0x0000000000003182       0x42 Hw_ISR.o
 .debug_loc     0x00000000000031c4      0x395 Hw_Timer.o
 .debug_loc     0x0000000000003559       0x8d Hw_VCom.o
 .debug_loc     0x00000000000035e6       0xcf Hw_Adc.o
 .debug_loc     0x00000000000036b5      0x2ce Hw_DcMotor.o
 .debug_loc     0x0000000000003983      0x118 Hw_Pwm.o
 .debug_loc     0x0000000000003a9b      0x388 Hw_Sonic.o
 .debug_loc     0x0000000000003e23       0xc7 usb_endp.o
 .debug_loc     0x0000000000003eea      0x118 usb_istr.o
 .debug_loc     0x0000000000004002      0x2ab usb_prop.o
 .debug_loc     0x00000000000042ad      0x368 usb_pwr.o
 .debug_loc     0x0000000000004615      0x278 hw_config.o
 .debug_loc     0x000000000000488d      0xa9f usb_core.o
 .debug_loc     0x000000000000532c       0x20 usb_init.o
 .debug_loc     0x000000000000534c      0x241 usb_mem.o
 .debug_loc     0x000000000000558d      0xc1f usb_regs.o
 .debug_loc     0x00000000000061ac      0x135 usb_sil.o
 .debug_loc     0x00000000000062e1      0x139 usb_int.o

.debug_aranges  0x0000000000000000      0xb00
 .debug_aranges
                0x0000000000000000       0x30 main.o
 .debug_aranges
                0x0000000000000030       0x20 Ap.o
 .debug_aranges
                0x0000000000000050       0xc8 Ap_StrCmd.o
 .debug_aranges
                0x0000000000000118       0x48 Ap_StrCmd_Q.o
 .debug_aranges
                0x0000000000000160       0x20 Ap_StrCmd_List.o
 .debug_aranges
                0x0000000000000180       0x20 Ap_StrCmd_MOVE.o
 .debug_aranges
                0x00000000000001a0       0x48 Lb_Util.o
 .debug_aranges
                0x00000000000001e8       0x68 Lb_Printf.o
 .debug_aranges
                0x0000000000000250       0x20 Hw_StartUp.o
 .debug_aranges
                0x0000000000000270       0x30 Hw.o
 .debug_aranges
                0x00000000000002a0       0x90 Hw_Uart.o
 .debug_aranges
                0x0000000000000330       0x20 Hw_PLL.o
 .debug_aranges
                0x0000000000000350       0x40 Hw_Led.o
 .debug_aranges
                0x0000000000000390       0x48 Hw_Uart_Q.o
 .debug_aranges
                0x00000000000003d8       0x30 Hw_ISR.o
 .debug_aranges
                0x0000000000000408       0x88 Hw_Timer.o
 .debug_aranges
                0x0000000000000490       0x38 Hw_VCom.o
 .debug_aranges
                0x00000000000004c8       0x40 Hw_Adc.o
 .debug_aranges
                0x0000000000000508       0x50 Hw_DcMotor.o
 .debug_aranges
                0x0000000000000558       0x40 Hw_Pwm.o
 .debug_aranges
                0x0000000000000598       0x80 Hw_Sonic.o
 .debug_aranges
                0x0000000000000618       0x18 usb_desc.o
 .debug_aranges
                0x0000000000000630       0x30 usb_endp.o
 .debug_aranges
                0x0000000000000660       0x20 usb_istr.o
 .debug_aranges
                0x0000000000000680       0x88 usb_prop.o
 .debug_aranges
                0x0000000000000708       0x40 usb_pwr.o
 .debug_aranges
                0x0000000000000748       0x90 hw_config.o
 .debug_aranges
                0x00000000000007d8       0x98 usb_core.o
 .debug_aranges
                0x0000000000000870       0x20 usb_init.o
 .debug_aranges
                0x0000000000000890       0x28 usb_mem.o
 .debug_aranges
                0x00000000000008b8      0x1f0 usb_regs.o
 .debug_aranges
                0x0000000000000aa8       0x30 usb_sil.o
 .debug_aranges
                0x0000000000000ad8       0x28 usb_int.o

.debug_ranges   0x0000000000000000     0x11b0
 .debug_ranges  0x0000000000000000       0x38 main.o
 .debug_ranges  0x0000000000000038       0x10 Ap.o
 .debug_ranges  0x0000000000000048      0x2f0 Ap_StrCmd.o
 .debug_ranges  0x0000000000000338       0x70 Ap_StrCmd_Q.o
 .debug_ranges  0x00000000000003a8       0x10 Ap_StrCmd_List.o
 .debug_ranges  0x00000000000003b8       0x10 Ap_StrCmd_MOVE.o
 .debug_ranges  0x00000000000003c8       0x70 Lb_Util.o
 .debug_ranges  0x0000000000000438      0x1c8 Lb_Printf.o
 .debug_ranges  0x0000000000000600       0x10 Hw_StartUp.o
 .debug_ranges  0x0000000000000610       0x60 Hw.o
 .debug_ranges  0x0000000000000670       0x98 Hw_Uart.o
 .debug_ranges  0x0000000000000708       0x10 Hw_PLL.o
 .debug_ranges  0x0000000000000718       0x50 Hw_Led.o
 .debug_ranges  0x0000000000000768       0x90 Hw_Uart_Q.o
 .debug_ranges  0x00000000000007f8       0x20 Hw_ISR.o
 .debug_ranges  0x0000000000000818       0xc8 Hw_Timer.o
 .debug_ranges  0x00000000000008e0       0x28 Hw_VCom.o
 .debug_ranges  0x0000000000000908       0x58 Hw_Adc.o
 .debug_ranges  0x0000000000000960       0x40 Hw_DcMotor.o
 .debug_ranges  0x00000000000009a0       0x58 Hw_Pwm.o
 .debug_ranges  0x00000000000009f8       0xb8 Hw_Sonic.o
 .debug_ranges  0x0000000000000ab0       0x20 usb_endp.o
 .debug_ranges  0x0000000000000ad0       0x10 usb_istr.o
 .debug_ranges  0x0000000000000ae0       0x78 usb_prop.o
 .debug_ranges  0x0000000000000b58       0x30 usb_pwr.o
 .debug_ranges  0x0000000000000b88       0xa0 hw_config.o
 .debug_ranges  0x0000000000000c28      0x270 usb_core.o
 .debug_ranges  0x0000000000000e98       0x10 usb_init.o
 .debug_ranges  0x0000000000000ea8       0x18 usb_mem.o
 .debug_ranges  0x0000000000000ec0      0x2a0 usb_regs.o
 .debug_ranges  0x0000000000001160       0x20 usb_sil.o
 .debug_ranges  0x0000000000001180       0x30 usb_int.o

.debug_line     0x0000000000000000     0x33f2
 .debug_line    0x0000000000000000       0xb1 main.o
 .debug_line    0x00000000000000b1       0x42 Ap.o
 .debug_line    0x00000000000000f3      0x4f8 Ap_StrCmd.o
 .debug_line    0x00000000000005eb      0x11c Ap_StrCmd_Q.o
 .debug_line    0x0000000000000707       0x4b Ap_StrCmd_List.o
 .debug_line    0x0000000000000752       0x77 Ap_StrCmd_MOVE.o
 .debug_line    0x00000000000007c9      0x12b Lb_Util.o
 .debug_line    0x00000000000008f4      0x662 Lb_Printf.o
 .debug_line    0x0000000000000f56       0x89 Hw_StartUp.o
 .debug_line    0x0000000000000fdf       0xa1 Hw.o
 .debug_line    0x0000000000001080      0x239 Hw_Uart.o
 .debug_line    0x00000000000012b9       0x65 Hw_PLL.o
 .debug_line    0x000000000000131e       0xb0 Hw_Led.o
 .debug_line    0x00000000000013ce      0x101 Hw_Uart_Q.o
 .debug_line    0x00000000000014cf       0x75 Hw_ISR.o
 .debug_line    0x0000000000001544      0x25c Hw_Timer.o
 .debug_line    0x00000000000017a0       0xa0 Hw_VCom.o
 .debug_line    0x0000000000001840      0x126 Hw_Adc.o
 .debug_line    0x0000000000001966      0x168 Hw_DcMotor.o
 .debug_line    0x0000000000001ace       0xdb Hw_Pwm.o
 .debug_line    0x0000000000001ba9      0x229 Hw_Sonic.o
 .debug_line    0x0000000000001dd2       0x4f usb_desc.o
 .debug_line    0x0000000000001e21       0xae usb_endp.o
 .debug_line    0x0000000000001ecf       0xfc usb_istr.o
 .debug_line    0x0000000000001fcb      0x20f usb_prop.o
 .debug_line    0x00000000000021da      0x18d usb_pwr.o
 .debug_line    0x0000000000002367      0x274 hw_config.o
 .debug_line    0x00000000000025db      0x47f usb_core.o
 .debug_line    0x0000000000002a5a       0x7a usb_init.o
 .debug_line    0x0000000000002ad4       0xc4 usb_mem.o
 .debug_line    0x0000000000002b98      0x674 usb_regs.o
 .debug_line    0x000000000000320c       0xa6 usb_sil.o
 .debug_line    0x00000000000032b2      0x140 usb_int.o

.debug_str      0x0000000000000000     0x244d
 .debug_str     0x0000000000000000       0xfd main.o
                                        0x11b (size before relaxing)
 .debug_str     0x00000000000000fd       0x17 Ap.o
                                        0x103 (size before relaxing)
 .debug_str     0x0000000000000114      0x361 Ap_StrCmd.o
                                        0x48a (size before relaxing)
 .debug_str     0x0000000000000475       0xf2 Ap_StrCmd_Q.o
                                        0x1f0 (size before relaxing)
 .debug_str     0x0000000000000567       0x2a Ap_StrCmd_List.o
                                        0x148 (size before relaxing)
 .debug_str     0x0000000000000591       0x50 Ap_StrCmd_MOVE.o
                                        0x185 (size before relaxing)
 .debug_str     0x00000000000005e1       0xa5 Lb_Util.o
                                        0x1dc (size before relaxing)
 .debug_str     0x0000000000000686      0x11b Lb_Printf.o
                                        0x231 (size before relaxing)
 .debug_str     0x00000000000007a1       0x7e Hw_StartUp.o
                                        0x17c (size before relaxing)
 .debug_str     0x000000000000081f       0x31 Hw.o
                                        0x11a (size before relaxing)
 .debug_str     0x0000000000000850      0x17c Hw_Uart.o
                                        0x274 (size before relaxing)
 .debug_str     0x00000000000009cc       0x1f Hw_PLL.o
                                        0x102 (size before relaxing)
 .debug_str     0x00000000000009eb       0x55 Hw_Led.o
                                        0x13e (size before relaxing)
 .debug_str     0x0000000000000a40       0xc2 Hw_Uart_Q.o
                                        0x1ae (size before relaxing)
 .debug_str     0x0000000000000b02       0x96 Hw_ISR.o
                                        0x182 (size before relaxing)
 .debug_str     0x0000000000000b98      0x19c Hw_Timer.o
                                        0x298 (size before relaxing)
 .debug_str     0x0000000000000d34       0x50 Hw_VCom.o
                                        0x191 (size before relaxing)
 .debug_str     0x0000000000000d84       0x6f Hw_Adc.o
                                        0x152 (size before relaxing)
 .debug_str     0x0000000000000df3       0xa2 Hw_DcMotor.o
                                        0x19a (size before relaxing)
 .debug_str     0x0000000000000e95       0x7a Hw_Pwm.o
                                        0x15d (size before relaxing)
 .debug_str     0x0000000000000f0f      0x15d Hw_Sonic.o
                                        0x266 (size before relaxing)
 .debug_str     0x000000000000106c       0xd3 usb_desc.o
                                        0x1c7 (size before relaxing)
 .debug_str     0x000000000000113f      0x11f usb_endp.o
                                        0x21c (size before relaxing)
 .debug_str     0x000000000000125e      0x1b6 usb_istr.o
                                        0x334 (size before relaxing)
 .debug_str     0x0000000000001414      0x4f1 usb_prop.o
                                        0x8d1 (size before relaxing)
 .debug_str     0x0000000000001905       0x81 usb_pwr.o
                                        0x2e6 (size before relaxing)
 .debug_str     0x0000000000001986      0x176 hw_config.o
                                        0x4ad (size before relaxing)
 .debug_str     0x0000000000001afc      0x431 usb_core.o
                                        0x9da (size before relaxing)
 .debug_str     0x0000000000001f2d       0x35 usb_init.o
                                        0x4b9 (size before relaxing)
 .debug_str     0x0000000000001f62       0x71 usb_mem.o
                                        0x16e (size before relaxing)
 .debug_str     0x0000000000001fd3      0x3dd usb_regs.o
                                        0x4f6 (size before relaxing)
 .debug_str     0x00000000000023b0       0x6f usb_sil.o
                                        0x17c (size before relaxing)
 .debug_str     0x000000000000241f       0x2e usb_int.o
                                        0x176 (size before relaxing)

.comment        0x0000000000000000       0x70
 .comment       0x0000000000000000       0x70 main.o
                                         0x71 (size before relaxing)
 .comment       0x0000000000000000       0x71 Ap.o
 .comment       0x0000000000000000       0x71 Ap_StrCmd.o
 .comment       0x0000000000000000       0x71 Ap_StrCmd_Q.o
 .comment       0x0000000000000000       0x71 Ap_StrCmd_List.o
 .comment       0x0000000000000000       0x71 Ap_StrCmd_MOVE.o
 .comment       0x0000000000000000       0x71 Lb_Util.o
 .comment       0x0000000000000000       0x71 Lb_Printf.o
 .comment       0x0000000000000000       0x71 Hw_StartUp.o
 .comment       0x0000000000000000       0x71 Hw.o
 .comment       0x0000000000000000       0x71 Hw_Uart.o
 .comment       0x0000000000000000       0x71 Hw_PLL.o
 .comment       0x0000000000000000       0x71 Hw_Led.o
 .comment       0x0000000000000000       0x71 Hw_Uart_Q.o
 .comment       0x0000000000000000       0x71 Hw_ISR.o
 .comment       0x0000000000000000       0x71 Hw_Timer.o
 .comment       0x0000000000000000       0x71 Hw_VCom.o
 .comment       0x0000000000000000       0x71 Hw_Adc.o
 .comment       0x0000000000000000       0x71 Hw_DcMotor.o
 .comment       0x0000000000000000       0x71 Hw_Pwm.o
 .comment       0x0000000000000000       0x71 Hw_Sonic.o
 .comment       0x0000000000000000       0x71 usb_desc.o
 .comment       0x0000000000000000       0x71 usb_endp.o
 .comment       0x0000000000000000       0x71 usb_istr.o
 .comment       0x0000000000000000       0x71 usb_prop.o
 .comment       0x0000000000000000       0x71 usb_pwr.o
 .comment       0x0000000000000000       0x71 hw_config.o
 .comment       0x0000000000000000       0x71 usb_core.o
 .comment       0x0000000000000000       0x71 usb_init.o
 .comment       0x0000000000000000       0x71 usb_mem.o
 .comment       0x0000000000000000       0x71 usb_regs.o
 .comment       0x0000000000000000       0x71 usb_sil.o
 .comment       0x0000000000000000       0x71 usb_int.o

.debug_frame    0x0000000000000000     0x2920
 .debug_frame   0x0000000000000000       0x7c main.o
 .debug_frame   0x000000000000007c       0x2c Ap.o
 .debug_frame   0x00000000000000a8      0x2c4 Ap_StrCmd.o
 .debug_frame   0x000000000000036c       0xa0 Ap_StrCmd_Q.o
 .debug_frame   0x000000000000040c       0x2c Ap_StrCmd_List.o
 .debug_frame   0x0000000000000438       0x34 Ap_StrCmd_MOVE.o
 .debug_frame   0x000000000000046c       0x9c Lb_Util.o
 .debug_frame   0x0000000000000508      0x19c Lb_Printf.o
 .debug_frame   0x00000000000006a4       0x3c Hw_StartUp.o
 .debug_frame   0x00000000000006e0       0x60 Hw.o
 .debug_frame   0x0000000000000740      0x1e0 Hw_Uart.o
 .debug_frame   0x0000000000000920       0x20 Hw_PLL.o
 .debug_frame   0x0000000000000940       0x64 Hw_Led.o
 .debug_frame   0x00000000000009a4       0x8c Hw_Uart_Q.o
 .debug_frame   0x0000000000000a30       0x40 Hw_ISR.o
 .debug_frame   0x0000000000000a70      0x14c Hw_Timer.o
 .debug_frame   0x0000000000000bbc       0x74 Hw_VCom.o
 .debug_frame   0x0000000000000c30       0x70 Hw_Adc.o
 .debug_frame   0x0000000000000ca0       0xcc Hw_DcMotor.o
 .debug_frame   0x0000000000000d6c       0x7c Hw_Pwm.o
 .debug_frame   0x0000000000000de8      0x130 Hw_Sonic.o
 .debug_frame   0x0000000000000f18       0x68 usb_endp.o
 .debug_frame   0x0000000000000f80       0x30 usb_istr.o
 .debug_frame   0x0000000000000fb0      0x148 usb_prop.o
 .debug_frame   0x00000000000010f8       0xb0 usb_pwr.o
 .debug_frame   0x00000000000011a8      0x16c hw_config.o
 .debug_frame   0x0000000000001314      0x1ec usb_core.o
 .debug_frame   0x0000000000001500       0x2c usb_init.o
 .debug_frame   0x000000000000152c       0x48 usb_mem.o
 .debug_frame   0x0000000000001574      0x3e4 usb_regs.o
 .debug_frame   0x0000000000001958       0x68 usb_sil.o
 .debug_frame   0x00000000000019c0       0x70 usb_int.o
 .debug_frame   0x0000000000001a30       0x20 /Users/imac/Develop/stm32f4/arm_gcc/gcc-arm-none-eabi-4_7-2013q3/bin/../lib/gcc/arm-none-eabi/4.7.4/../../../../arm-none-eabi/lib/armv7-m/libc.a(lib_a-errno.o)
 .debug_frame   0x0000000000001a50       0x68 /Users/imac/Develop/stm32f4/arm_gcc/gcc-arm-none-eabi-4_7-2013q3/bin/../lib/gcc/arm-none-eabi/4.7.4/../../../../arm-none-eabi/lib/armv7-m/libc.a(lib_a-sscanf.o)
 .debug_frame   0x0000000000001ab8       0x80 /Users/imac/Develop/stm32f4/arm_gcc/gcc-arm-none-eabi-4_7-2013q3/bin/../lib/gcc/arm-none-eabi/4.7.4/../../../../arm-none-eabi/lib/armv7-m/libc.a(lib_a-stdio.o)
 .debug_frame   0x0000000000001b38       0x30 /Users/imac/Develop/stm32f4/arm_gcc/gcc-arm-none-eabi-4_7-2013q3/bin/../lib/gcc/arm-none-eabi/4.7.4/../../../../arm-none-eabi/lib/armv7-m/libc.a(lib_a-strcmp.o)
 .debug_frame   0x0000000000001b68       0x20 /Users/imac/Develop/stm32f4/arm_gcc/gcc-arm-none-eabi-4_7-2013q3/bin/../lib/gcc/arm-none-eabi/4.7.4/../../../../arm-none-eabi/lib/armv7-m/libc.a(lib_a-strlen.o)
 .debug_frame   0x0000000000001b88       0x2c /Users/imac/Develop/stm32f4/arm_gcc/gcc-arm-none-eabi-4_7-2013q3/bin/../lib/gcc/arm-none-eabi/4.7.4/../../../../arm-none-eabi/lib/armv7-m/libc.a(lib_a-strncmp.o)
 .debug_frame   0x0000000000001bb4       0x20 /Users/imac/Develop/stm32f4/arm_gcc/gcc-arm-none-eabi-4_7-2013q3/bin/../lib/gcc/arm-none-eabi/4.7.4/../../../../arm-none-eabi/lib/armv7-m/libc.a(lib_a-strtok.o)
 .debug_frame   0x0000000000001bd4       0x3c /Users/imac/Develop/stm32f4/arm_gcc/gcc-arm-none-eabi-4_7-2013q3/bin/../lib/gcc/arm-none-eabi/4.7.4/../../../../arm-none-eabi/lib/armv7-m/libc.a(lib_a-strtok_r.o)
 .debug_frame   0x0000000000001c10       0x3c /Users/imac/Develop/stm32f4/arm_gcc/gcc-arm-none-eabi-4_7-2013q3/bin/../lib/gcc/arm-none-eabi/4.7.4/../../../../arm-none-eabi/lib/armv7-m/libc.a(lib_a-svfscanf.o)
 .debug_frame   0x0000000000001c4c      0x120 /Users/imac/Develop/stm32f4/arm_gcc/gcc-arm-none-eabi-4_7-2013q3/bin/../lib/gcc/arm-none-eabi/4.7.4/../../../../arm-none-eabi/lib/armv7-m/libc.a(lib_a-findfp.o)
 .debug_frame   0x0000000000001d6c       0x20 /Users/imac/Develop/stm32f4/arm_gcc/gcc-arm-none-eabi-4_7-2013q3/bin/../lib/gcc/arm-none-eabi/4.7.4/../../../../arm-none-eabi/lib/armv7-m/libc.a(lib_a-iswspace.o)
 .debug_frame   0x0000000000001d8c       0xa0 /Users/imac/Develop/stm32f4/arm_gcc/gcc-arm-none-eabi-4_7-2013q3/bin/../lib/gcc/arm-none-eabi/4.7.4/../../../../arm-none-eabi/lib/armv7-m/libc.a(lib_a-locale.o)
 .debug_frame   0x0000000000001e2c       0x38 /Users/imac/Develop/stm32f4/arm_gcc/gcc-arm-none-eabi-4_7-2013q3/bin/../lib/gcc/arm-none-eabi/4.7.4/../../../../arm-none-eabi/lib/armv7-m/libc.a(lib_a-mallocr.o)
 .debug_frame   0x0000000000001e64       0x5c /Users/imac/Develop/stm32f4/arm_gcc/gcc-arm-none-eabi-4_7-2013q3/bin/../lib/gcc/arm-none-eabi/4.7.4/../../../../arm-none-eabi/lib/armv7-m/libc.a(lib_a-mbrtowc.o)
 .debug_frame   0x0000000000001ec0       0x48 /Users/imac/Develop/stm32f4/arm_gcc/gcc-arm-none-eabi-4_7-2013q3/bin/../lib/gcc/arm-none-eabi/4.7.4/../../../../arm-none-eabi/lib/armv7-m/libc.a(lib_a-mbtowc_r.o)
 .debug_frame   0x0000000000001f08       0x2c /Users/imac/Develop/stm32f4/arm_gcc/gcc-arm-none-eabi-4_7-2013q3/bin/../lib/gcc/arm-none-eabi/4.7.4/../../../../arm-none-eabi/lib/armv7-m/libc.a(lib_a-memset.o)
 .debug_frame   0x0000000000001f34       0x30 /Users/imac/Develop/stm32f4/arm_gcc/gcc-arm-none-eabi-4_7-2013q3/bin/../lib/gcc/arm-none-eabi/4.7.4/../../../../arm-none-eabi/lib/armv7-m/libc.a(lib_a-mlock.o)
 .debug_frame   0x0000000000001f64       0x6c /Users/imac/Develop/stm32f4/arm_gcc/gcc-arm-none-eabi-4_7-2013q3/bin/../lib/gcc/arm-none-eabi/4.7.4/../../../../arm-none-eabi/lib/armv7-m/libc.a(lib_a-reent.o)
 .debug_frame   0x0000000000001fd0       0x20 /Users/imac/Develop/stm32f4/arm_gcc/gcc-arm-none-eabi-4_7-2013q3/bin/../lib/gcc/arm-none-eabi/4.7.4/../../../../arm-none-eabi/lib/armv7-m/libc.a(lib_a-s_fpclassify.o)
 .debug_frame   0x0000000000001ff0       0x2c /Users/imac/Develop/stm32f4/arm_gcc/gcc-arm-none-eabi-4_7-2013q3/bin/../lib/gcc/arm-none-eabi/4.7.4/../../../../arm-none-eabi/lib/armv7-m/libc.a(lib_a-sbrkr.o)
 .debug_frame   0x000000000000201c       0x2c /Users/imac/Develop/stm32f4/arm_gcc/gcc-arm-none-eabi-4_7-2013q3/bin/../lib/gcc/arm-none-eabi/4.7.4/../../../../arm-none-eabi/lib/armv7-m/libc.a(lib_a-sccl.o)
 .debug_frame   0x0000000000002048       0x20 /Users/imac/Develop/stm32f4/arm_gcc/gcc-arm-none-eabi-4_7-2013q3/bin/../lib/gcc/arm-none-eabi/4.7.4/../../../../arm-none-eabi/lib/armv7-m/libc.a(lib_a-sf_nan.o)
 .debug_frame   0x0000000000002068       0x64 /Users/imac/Develop/stm32f4/arm_gcc/gcc-arm-none-eabi-4_7-2013q3/bin/../lib/gcc/arm-none-eabi/4.7.4/../../../../arm-none-eabi/lib/armv7-m/libc.a(lib_a-sprintf.o)
 .debug_frame   0x00000000000020cc       0x70 /Users/imac/Develop/stm32f4/arm_gcc/gcc-arm-none-eabi-4_7-2013q3/bin/../lib/gcc/arm-none-eabi/4.7.4/../../../../arm-none-eabi/lib/armv7-m/libc.a(lib_a-strtod.o)
 .debug_frame   0x000000000000213c       0x54 /Users/imac/Develop/stm32f4/arm_gcc/gcc-arm-none-eabi-4_7-2013q3/bin/../lib/gcc/arm-none-eabi/4.7.4/../../../../arm-none-eabi/lib/armv7-m/libc.a(lib_a-strtol.o)
 .debug_frame   0x0000000000002190       0x38 /Users/imac/Develop/stm32f4/arm_gcc/gcc-arm-none-eabi-4_7-2013q3/bin/../lib/gcc/arm-none-eabi/4.7.4/../../../../arm-none-eabi/lib/armv7-m/libc.a(lib_a-strtoll_r.o)
 .debug_frame   0x00000000000021c8       0x54 /Users/imac/Develop/stm32f4/arm_gcc/gcc-arm-none-eabi-4_7-2013q3/bin/../lib/gcc/arm-none-eabi/4.7.4/../../../../arm-none-eabi/lib/armv7-m/libc.a(lib_a-strtoul.o)
 .debug_frame   0x000000000000221c       0x38 /Users/imac/Develop/stm32f4/arm_gcc/gcc-arm-none-eabi-4_7-2013q3/bin/../lib/gcc/arm-none-eabi/4.7.4/../../../../arm-none-eabi/lib/armv7-m/libc.a(lib_a-strtoull_r.o)
 .debug_frame   0x0000000000002254       0x98 /Users/imac/Develop/stm32f4/arm_gcc/gcc-arm-none-eabi-4_7-2013q3/bin/../lib/gcc/arm-none-eabi/4.7.4/../../../../arm-none-eabi/lib/armv7-m/libc.a(lib_a-svfiscanf.o)
 .debug_frame   0x00000000000022ec       0x3c /Users/imac/Develop/stm32f4/arm_gcc/gcc-arm-none-eabi-4_7-2013q3/bin/../lib/gcc/arm-none-eabi/4.7.4/../../../../arm-none-eabi/lib/armv7-m/libc.a(lib_a-svfprintf.o)
 .debug_frame   0x0000000000002328       0x64 /Users/imac/Develop/stm32f4/arm_gcc/gcc-arm-none-eabi-4_7-2013q3/bin/../lib/gcc/arm-none-eabi/4.7.4/../../../../arm-none-eabi/lib/armv7-m/libc.a(lib_a-ungetc.o)
 .debug_frame   0x000000000000238c       0x64 /Users/imac/Develop/stm32f4/arm_gcc/gcc-arm-none-eabi-4_7-2013q3/bin/../lib/gcc/arm-none-eabi/4.7.4/../../../../arm-none-eabi/lib/armv7-m/libc.a(lib_a-dtoa.o)
 .debug_frame   0x00000000000023f0       0x50 /Users/imac/Develop/stm32f4/arm_gcc/gcc-arm-none-eabi-4_7-2013q3/bin/../lib/gcc/arm-none-eabi/4.7.4/../../../../arm-none-eabi/lib/armv7-m/libc.a(lib_a-freer.o)
 .debug_frame   0x0000000000002440       0x68 /Users/imac/Develop/stm32f4/arm_gcc/gcc-arm-none-eabi-4_7-2013q3/bin/../lib/gcc/arm-none-eabi/4.7.4/../../../../arm-none-eabi/lib/armv7-m/libc.a(lib_a-gdtoa-gethex.o)
 .debug_frame   0x00000000000024a8       0x38 /Users/imac/Develop/stm32f4/arm_gcc/gcc-arm-none-eabi-4_7-2013q3/bin/../lib/gcc/arm-none-eabi/4.7.4/../../../../arm-none-eabi/lib/armv7-m/libc.a(lib_a-gdtoa-hexnan.o)
 .debug_frame   0x00000000000024e0       0x2c /Users/imac/Develop/stm32f4/arm_gcc/gcc-arm-none-eabi-4_7-2013q3/bin/../lib/gcc/arm-none-eabi/4.7.4/../../../../arm-none-eabi/lib/armv7-m/libc.a(lib_a-memchr.o)
 .debug_frame   0x000000000000250c       0x30 /Users/imac/Develop/stm32f4/arm_gcc/gcc-arm-none-eabi-4_7-2013q3/bin/../lib/gcc/arm-none-eabi/4.7.4/../../../../arm-none-eabi/lib/armv7-m/libc.a(lib_a-memcpy.o)
 .debug_frame   0x000000000000253c      0x238 /Users/imac/Develop/stm32f4/arm_gcc/gcc-arm-none-eabi-4_7-2013q3/bin/../lib/gcc/arm-none-eabi/4.7.4/../../../../arm-none-eabi/lib/armv7-m/libc.a(lib_a-mprec.o)
 .debug_frame   0x0000000000002774       0x38 /Users/imac/Develop/stm32f4/arm_gcc/gcc-arm-none-eabi-4_7-2013q3/bin/../lib/gcc/arm-none-eabi/4.7.4/../../../../arm-none-eabi/lib/armv7-m/libc.a(lib_a-reallocr.o)
 .debug_frame   0x00000000000027ac       0x64 /Users/imac/Develop/stm32f4/arm_gcc/gcc-arm-none-eabi-4_7-2013q3/bin/../lib/gcc/arm-none-eabi/4.7.4/../../../../arm-none-eabi/lib/armv7-m/libc.a(lib_a-svfiprintf.o)
 .debug_frame   0x0000000000002810       0x28 /Users/imac/Develop/stm32f4/arm_gcc/gcc-arm-none-eabi-4_7-2013q3/bin/../lib/gcc/arm-none-eabi/4.7.4/../../../../arm-none-eabi/lib/armv7-m/libc.a(lib_a-callocr.o)
 .debug_frame   0x0000000000002838       0x30 /Users/imac/Develop/stm32f4/arm_gcc/gcc-arm-none-eabi-4_7-2013q3/bin/../lib/gcc/arm-none-eabi/4.7.4/../../../../arm-none-eabi/lib/armv7-m/libc.a(lib_a-memmove.o)
 .debug_frame   0x0000000000002868       0x50 /Users/imac/Develop/stm32f4/arm_gcc/gcc-arm-none-eabi-4_7-2013q3/bin/../lib/gcc/arm-none-eabi/4.7.4/armv7-m/libgcc.a(bpabi.o)
 .debug_frame   0x00000000000028b8       0x34 /Users/imac/Develop/stm32f4/arm_gcc/gcc-arm-none-eabi-4_7-2013q3/bin/../lib/gcc/arm-none-eabi/4.7.4/armv7-m/libgcc.a(_divdi3.o)
 .debug_frame   0x00000000000028ec       0x34 /Users/imac/Develop/stm32f4/arm_gcc/gcc-arm-none-eabi-4_7-2013q3/bin/../lib/gcc/arm-none-eabi/4.7.4/armv7-m/libgcc.a(_udivdi3.o)

Cross Reference Table

Symbol                                            File
Ap_EduMenu_ExeCmd                                 Ap_EduMenu.o
Ap_EduMenu_GetCmd                                 Ap_EduMenu.o
Ap_EduMenu_ShowMenu                               Ap_EduMenu.o
Ap_GCldMenu_MoveCircleTick_1st                    Ap_GLcdMenu.o
Ap_GCldMenu_MoveCircleTick_2nd                    Ap_GLcdMenu.o
Ap_GLcdMenu_ExeCmd                                Ap_GLcdMenu.o
Ap_GLcdMenu_GetCmd                                Ap_GLcdMenu.o
Ap_GLcdMenu_ShowMenu                              Ap_GLcdMenu.o
Ap_Init                                           Ap.o
                                                  main.o
Ap_RadioMenu_ExeCmd                               Ap_RadioMenu.o
Ap_RadioMenu_GetCmd                               Ap_RadioMenu.o
Ap_RadioMenu_ShowMenu                             Ap_RadioMenu.o
Ap_Radio_AM_ChannelGet                            Ap_Radio.o
Ap_Radio_AM_ChannelSet                            Ap_Radio.o
Ap_Radio_ApiStart                                 Ap_Radio.o
Ap_Radio_BandGet                                  Ap_Radio.o
                                                  Ap_RadioMenu.o
Ap_Radio_BandSetAM                                Ap_Radio.o
                                                  Ap_RadioMenu.o
Ap_Radio_BandSetFM                                Ap_Radio.o
                                                  Ap_RadioMenu.o
Ap_Radio_ChannelGet                               Ap_Radio.o
                                                  Ap_RadioMenu.o
Ap_Radio_ChannelSet                               Ap_Radio.o
                                                  Ap_RadioMenu.o
Ap_Radio_ChannelSetFirst                          Ap_Radio.o
                                                  Ap_RadioMenu.o
Ap_Radio_ChannelSetLast                           Ap_Radio.o
Ap_Radio_ChannelSetNext                           Ap_Radio.o
                                                  Ap_RadioMenu.o
Ap_Radio_ChannelSetPrev                           Ap_Radio.o
                                                  Ap_RadioMenu.o
Ap_Radio_FM_ChannelGet                            Ap_Radio.o
Ap_Radio_FM_ChannelSet                            Ap_Radio.o
Ap_Radio_Init                                     Ap_Radio.o
Ap_Radio_Log                                      Ap_Radio.o
Ap_Radio_MuteSetOff                               Ap_Radio.o
Ap_Radio_MuteSetOn                                Ap_Radio.o
Ap_Radio_SeekFromFirst                            Ap_Radio.o
Ap_Radio_SeekFromLast                             Ap_Radio.o
Ap_Radio_SeekToFirst                              Ap_Radio.o
                                                  Ap_RadioMenu.o
Ap_Radio_SeekToLast                               Ap_Radio.o
                                                  Ap_RadioMenu.o
Ap_Radio_VolumeGet                                Ap_Radio.o
                                                  Ap_RadioMenu.o
Ap_Radio_VolumeSet                                Ap_Radio.o
Ap_Radio_VolumeSetDown                            Ap_Radio.o
                                                  Ap_RadioMenu.o
Ap_Radio_VolumeSetUp                              Ap_Radio.o
                                                  Ap_RadioMenu.o
Ap_StrCmd_AddCmd                                  Ap_StrCmd.o
                                                  Ap_StrCmd_List.o
Ap_StrCmd_CallBack_RxdISR                         Ap_StrCmd.o
Ap_StrCmd_ChSize                                  Ap_StrCmd.o
Ap_StrCmd_CmdCheck                                Ap_StrCmd.o
Ap_StrCmd_CmdClear                                Ap_StrCmd.o
Ap_StrCmd_CmdStr                                  Ap_StrCmd.o
Ap_StrCmd_CmdStrExe                               Ap_StrCmd.o
Ap_StrCmd_Delay                                   Ap_StrCmd.o
Ap_StrCmd_Dic_Ptr                                 Ap_StrCmd.o
Ap_StrCmd_DlyCheck                                Ap_StrCmd.o
Ap_StrCmd_Echo                                    Ap_StrCmd.o
Ap_StrCmd_EchoEnable                              Ap_StrCmd.o
Ap_StrCmd_ExeCmd                                  Ap_StrCmd.o
                                                  main.o
Ap_StrCmd_ExeFunc                                 Ap_StrCmd.o
Ap_StrCmd_GetSize                                 Ap_StrCmd.o
Ap_StrCmd_Init                                    Ap_StrCmd.o
                                                  Ap.o
Ap_StrCmd_List                                    Ap_StrCmd_List.o
                                                  Ap.o
Ap_StrCmd_Loop                                    Ap_StrCmd.o
Ap_StrCmd_LoopCheck                               Ap_StrCmd.o
Ap_StrCmd_MOVE                                    Ap_StrCmd_MOVE.o
                                                  Ap_StrCmd_List.o
Ap_StrCmd_Print                                   Ap_StrCmd.o
Ap_StrCmd_PrintPtr                                Ap_StrCmd.o
Ap_StrCmd_Printf                                  Ap_StrCmd.o
Ap_StrCmd_PutFunc                                 Ap_StrCmd.o
Ap_StrCmd_Putch                                   Ap_StrCmd.o
Ap_StrCmd_PutchPtr                                Ap_StrCmd.o
Ap_StrCmd_Q_Buffer                                Ap_StrCmd_Q.o
Ap_StrCmd_Q_End                                   Ap_StrCmd_Q.o
Ap_StrCmd_Q_Init                                  Ap_StrCmd_Q.o
                                                  Ap_StrCmd.o
Ap_StrCmd_Q_Pop                                   Ap_StrCmd_Q.o
                                                  Ap_StrCmd.o
Ap_StrCmd_Q_Push                                  Ap_StrCmd_Q.o
                                                  Ap_StrCmd.o
Ap_StrCmd_Q_PushReady                             Ap_StrCmd_Q.o
Ap_StrCmd_Q_SIZE                                  Ap_StrCmd_Q.o
                                                  Ap_StrCmd.o
Ap_StrCmd_Q_Size                                  Ap_StrCmd_Q.o
Ap_StrCmd_Q_Start                                 Ap_StrCmd_Q.o
Ap_StrCmd_Q_VAILD                                 Ap_StrCmd_Q.o
Ap_StrCmd_SendInfo                                Ap_StrCmd.o
                                                  main.o
Ap_StrCmd_SendResp                                Ap_StrCmd.o
                                                  Ap_StrCmd_MOVE.o
Ap_StrCmd_SetFunc_Putch                           Ap_StrCmd.o
Ap_StrCmd_ShowInfo                                Ap_StrCmd.o
Ap_StrCmd_ShowMenu                                Ap_StrCmd.o
Ap_StrCmd_ShowMenuHelp                            Ap_StrCmd.o
Ap_StrCmd_Size                                    Ap_StrCmd.o
Ap_StrCmd_StrCopy                                 Ap_StrCmd.o
Ap_StrCmd_StrLen                                  Ap_StrCmd.o
ByteSwap                                          usb_regs.o
                                                  usb_core.o
CTR_HP                                            usb_int.o
CTR_LP                                            usb_int.o
                                                  usb_istr.o
ClearDTOG_RX                                      usb_regs.o
                                                  usb_core.o
ClearDTOG_TX                                      usb_regs.o
                                                  usb_core.o
ClearEPDoubleBuff                                 usb_regs.o
ClearEP_CTR_RX                                    usb_regs.o
ClearEP_CTR_TX                                    usb_regs.o
ClearEP_KIND                                      usb_regs.o
Clear_Status_Out                                  usb_regs.o
                                                  usb_prop.o
Config_Descriptor                                 usb_prop.o
Data_Mul_MaxPacketSize                            usb_core.o
DecToLong                                         Lb_Printf.o
Device_Descriptor                                 usb_prop.o
Device_Info                                       usb_init.o
                                                  hw_config.o
                                                  usb_prop.o
Device_Property                                   usb_prop.o
                                                  usb_init.o
                                                  usb_core.o
                                                  usb_istr.o
Device_Table                                      usb_prop.o
                                                  usb_core.o
EP                                                usb_pwr.o
EP1_IN_Callback                                   usb_endp.o
                                                  usb_istr.o
EP3_OUT_Callback                                  usb_endp.o
                                                  usb_istr.o
EPindex                                           usb_int.o
                                                  usb_init.o
Enter_LowPowerMode                                hw_config.o
FreeUserBuffer                                    usb_regs.o
GetBTABLE                                         usb_regs.o
GetCNTR                                           usb_regs.o
GetDADDR                                          usb_regs.o
GetENDPOINT                                       usb_regs.o
GetEPAddress                                      usb_regs.o
GetEPDblBuf0Addr                                  usb_regs.o
GetEPDblBuf0Count                                 usb_regs.o
GetEPDblBuf1Addr                                  usb_regs.o
GetEPDblBuf1Count                                 usb_regs.o
GetEPDblBufDir                                    usb_regs.o
GetEPRxAddr                                       usb_regs.o
                                                  usb_sil.o
                                                  usb_core.o
GetEPRxCount                                      usb_regs.o
                                                  usb_sil.o
GetEPRxStatus                                     usb_regs.o
GetEPTxAddr                                       usb_regs.o
                                                  usb_sil.o
                                                  usb_core.o
GetEPTxCount                                      usb_regs.o
GetEPTxStatus                                     usb_regs.o
GetEPType                                         usb_regs.o
GetFNR                                            usb_regs.o
GetISTR                                           usb_regs.o
GetRxStallStatus                                  usb_regs.o
GetTxStallStatus                                  usb_regs.o
Get_SerialNum                                     hw_config.o
                                                  usb_prop.o
HW_UART_Q_SIZE                                    Hw_Uart_Q.o
HW_UART_Q_VAILD                                   Hw_Uart_Q.o
                                                  Hw_VCom.o
                                                  Hw_Uart.o
Handle_USBAsynchXfer                              hw_config.o
                                                  usb_endp.o
Hw_7Seg_Data                                      Hw_7Seg.o
Hw_7Seg_DotTbl                                    Hw_7Seg.o
Hw_7Seg_Init                                      Hw_7Seg.o
Hw_7Seg_Print                                     Hw_7Seg.o
                                                  Ap_EduMenu.o
Hw_7Seg_SetDot                                    Hw_7Seg.o
Hw_7Seg_SetNumber                                 Hw_7Seg.o
Hw_7Seg_Tick                                      Hw_7Seg.o
Hw_Adc_GetConv                                    Hw_Adc.o
Hw_Adc_GetData                                    Hw_Adc.o
                                                  Hw_Cds.o
Hw_Adc_Init                                       Hw_Adc.o
                                                  Hw.o
Hw_Adc_PortInit                                   Hw_Adc.o
Hw_Adc_StartConv                                  Hw_Adc.o
Hw_CLcd_Clear                                     Hw_CLcd.o
Hw_CLcd_Delay                                     Hw_CLcd.o
Hw_CLcd_Goto                                      Hw_CLcd.o
Hw_CLcd_Init                                      Hw_CLcd.o
Hw_CLcd_Print                                     Hw_CLcd.o
                                                  Ap_EduMenu.o
Hw_CLcd_WriteByte                                 Hw_CLcd.o
Hw_CLcd_WriteChar                                 Hw_CLcd.o
Hw_CLcd_WriteCmd                                  Hw_CLcd.o
Hw_CLcd_WriteStr                                  Hw_CLcd.o
Hw_Cds_GetData                                    Hw_Cds.o
                                                  Ap_EduMenu.o
Hw_Cds_Init                                       Hw_Cds.o
Hw_DMA_Init                                       Hw_DMA.o
Hw_DMA_SPI2_IsTransFinished                       Hw_DMA.o
                                                  Hw_N5110G.o
Hw_DMA_SPI2_Setup                                 Hw_DMA.o
                                                  Hw_N5110G.o
Hw_DcMotor_Handle                                 Hw_DcMotor.o
                                                  Ap_StrCmd_MOVE.o
                                                  main.o
Hw_DcMotor_Init                                   Hw_DcMotor.o
                                                  Hw.o
Hw_DcMotor_SetDir                                 Hw_DcMotor.o
Hw_DcMotor_SetPwm                                 Hw_DcMotor.o
Hw_DcMotor_State                                  Hw_DcMotor.o
Hw_DcMotor_Stop                                   Hw_DcMotor.o
Hw_I2C_Init                                       Hw_I2C.o
                                                  Hw_Si47xx.o
Hw_I2C_Read                                       Hw_I2C.o
                                                  Hw_Si47xx.o
Hw_I2C_SW_EndTransmit                             Hw_I2C_SW.o
Hw_I2C_SW_IO_Setup                                Hw_I2C_SW.o
Hw_I2C_SW_Init                                    Hw_I2C_SW.o
                                                  Hw_I2C.o
Hw_I2C_SW_Read                                    Hw_I2C_SW.o
                                                  Hw_I2C.o
Hw_I2C_SW_ReadByte_Ack                            Hw_I2C_SW.o
Hw_I2C_SW_ReadByte_NoAck                          Hw_I2C_SW.o
Hw_I2C_SW_SCL_HIGH                                Hw_I2C_SW.o
Hw_I2C_SW_SCL_LOW                                 Hw_I2C_SW.o
Hw_I2C_SW_SDA                                     Hw_I2C_SW.o
Hw_I2C_SW_SDA_HIGH                                Hw_I2C_SW.o
Hw_I2C_SW_SDA_LOW                                 Hw_I2C_SW.o
Hw_I2C_SW_SetDir_SDA_Input                        Hw_I2C_SW.o
Hw_I2C_SW_SetDir_SDA_Output                       Hw_I2C_SW.o
Hw_I2C_SW_StartTransmit                           Hw_I2C_SW.o
Hw_I2C_SW_Write                                   Hw_I2C_SW.o
                                                  Hw_I2C.o
Hw_I2C_SW_WriteByte_Ack                           Hw_I2C_SW.o
Hw_I2C_SW_WriteByte_NoAck                         Hw_I2C_SW.o
Hw_I2C_Write                                      Hw_I2C.o
                                                  Hw_Si47xx.o
Hw_ISR_Init                                       Hw_ISR.o
                                                  Hw.o
Hw_ISR_SetIRQFunc                                 Hw_ISR.o
                                                  Hw_Sonic.o
                                                  Hw_Uart.o
Hw_ISR_SetIRQFuncByAddr                           Hw_ISR.o
                                                  hw_config.o
                                                  Hw_Timer.o
Hw_ISR_UART1_Handler                              Hw_Uart.o
Hw_ISR_UART2_Handler                              Hw_Uart.o
Hw_ISR_VectorTable                                Hw_ISR.o
Hw_Init                                           Hw.o
                                                  main.o
Hw_KeyPad_Data                                    Hw_KeyPad.o
Hw_KeyPad_EventFlag                               Hw_KeyPad.o
Hw_KeyPad_EventKeyNum                             Hw_KeyPad.o
Hw_KeyPad_EventList                               Hw_KeyPad.o
Hw_KeyPad_GetEventKeyData                         Hw_KeyPad.o
                                                  Ap_EduMenu.o
Hw_KeyPad_GetEventKeyNum                          Hw_KeyPad.o
                                                  Ap_EduMenu.o
Hw_KeyPad_GetPressedCnt                           Hw_KeyPad.o
                                                  Ap_EduMenu.o
Hw_KeyPad_GetPressedNum                           Hw_KeyPad.o
Hw_KeyPad_GetRepeatCnt                            Hw_KeyPad.o
                                                  Ap_EduMenu.o
Hw_KeyPad_Init                                    Hw_KeyPad.o
Hw_KeyPad_Log                                     Hw_KeyPad.o
Hw_KeyPad_PressedCount                            Hw_KeyPad.o
Hw_KeyPad_PressedList                             Hw_KeyPad.o
Hw_KeyPad_ReadCode                                Hw_KeyPad.o
Hw_KeyPad_Scan                                    Hw_KeyPad.o
Hw_KeyPad_SetEventFunc                            Hw_KeyPad.o
                                                  Ap_EduMenu.o
Hw_KeyPad_StateTick                               Hw_KeyPad.o
Hw_KeyPad_Tick                                    Hw_KeyPad.o
Hw_KeyPad_WaitForEvent                            Hw_KeyPad.o
                                                  Ap_EduMenu.o
Hw_Led_Init                                       Hw_Led.o
                                                  Hw.o
Hw_Led_Off                                        Hw_Led.o
Hw_Led_On                                         Hw_Led.o
Hw_Led_Toggle                                     Hw_Led.o
                                                  Ap_EduMenu.o
                                                  main.o
Hw_Led_Wait                                       Hw_Led.o
Hw_N5100G_FrameTick                               Hw_N5110G.o
Hw_N5110G_Clear                                   Hw_N5110G.o
                                                  Ap_GLcdMenu.o
Hw_N5110G_ClrPixel                                Hw_N5110G.o
Hw_N5110G_DrawCircle                              Hw_N5110G.o
                                                  Ap_GLcdMenu.o
Hw_N5110G_DrawClear                               Hw_N5110G.o
Hw_N5110G_DrawClearRect                           Hw_N5110G.o
                                                  Ap_GLcdMenu.o
Hw_N5110G_DrawPrint                               Hw_N5110G.o
                                                  Ap_GLcdMenu.o
Hw_N5110G_DrawRequest                             Hw_N5110G.o
                                                  Ap_GLcdMenu.o
Hw_N5110G_Font6_8                                 Hw_N5110G.o
Hw_N5110G_Frame_DrawReq                           Hw_N5110G.o
Hw_N5110G_Frame_Index                             Hw_N5110G.o
Hw_N5110G_GetPixel                                Hw_N5110G.o
Hw_N5110G_Goto                                    Hw_N5110G.o
Hw_N5110G_Init                                    Hw_N5110G.o
Hw_N5110G_Print                                   Hw_N5110G.o
Hw_N5110G_Reset                                   Hw_N5110G.o
Hw_N5110G_RxFrameBuf                              Hw_N5110G.o
Hw_N5110G_SetPixel                                Hw_N5110G.o
Hw_N5110G_TxFrameBuf                              Hw_N5110G.o
Hw_N5110G_WriteByte                               Hw_N5110G.o
Hw_N5110G_WriteChar                               Hw_N5110G.o
Hw_N5110G_WriteCmd                                Hw_N5110G.o
Hw_N5110G_WriteStr                                Hw_N5110G.o
Hw_N5110G_XorPixel                                Hw_N5110G.o
Hw_PLL_Init                                       Hw_PLL.o
                                                  Hw.o
Hw_Pwm_IO_Setup                                   Hw_Pwm.o
Hw_Pwm_Init                                       Hw_Pwm.o
                                                  Hw.o
Hw_Pwm_SetDuty                                    Hw_Pwm.o
Hw_Pwm_SetPercent                                 Hw_Pwm.o
                                                  Hw_DcMotor.o
Hw_Pwm_Timer_Setup                                Hw_Pwm.o
Hw_SPI_Ch1_Init                                   Hw_SPI.o
Hw_SPI_Ch2_Init                                   Hw_SPI.o
Hw_SPI_Disable                                    Hw_SPI.o
Hw_SPI_Enable                                     Hw_SPI.o
Hw_SPI_Init                                       Hw_SPI.o
                                                  Hw_N5110G.o
Hw_SPI_StartDMA                                   Hw_SPI.o
                                                  Hw_N5110G.o
Hw_SPI_StopDMA                                    Hw_SPI.o
Hw_SPI_Write16Bit                                 Hw_SPI.o
Hw_SPI_Write8Bit                                  Hw_SPI.o
                                                  Hw_N5110G.o
Hw_Si47xx_AM_Config                               Hw_Si47xx.o
                                                  Ap_Radio.o
Hw_Si47xx_AM_SEEK_START                           Hw_Si47xx.o
                                                  Ap_Radio.o
Hw_Si47xx_AM_TUNE_FREQ                            Hw_Si47xx.o
                                                  Ap_Radio.o
Hw_Si47xx_AM_TUNE_STATUS                          Hw_Si47xx.o
                                                  Ap_Radio.o
Hw_Si47xx_CommandResp                             Hw_Si47xx.o
Hw_Si47xx_FM_Config                               Hw_Si47xx.o
                                                  Ap_Radio.o
Hw_Si47xx_FM_SEEK_START                           Hw_Si47xx.o
                                                  Ap_Radio.o
Hw_Si47xx_FM_TUNE_FREQ                            Hw_Si47xx.o
                                                  Ap_Radio.o
Hw_Si47xx_FM_TUNE_STATUS                          Hw_Si47xx.o
                                                  Ap_Radio.o
Hw_Si47xx_GET_INT_STATUS                          Hw_Si47xx.o
Hw_Si47xx_GET_PROPERTY                            Hw_Si47xx.o
                                                  Ap_Radio.o
Hw_Si47xx_Init                                    Hw_Si47xx.o
                                                  Ap_Radio.o
Hw_Si47xx_LastResp                                Hw_Si47xx.o
Hw_Si47xx_POWER_UP                                Hw_Si47xx.o
Hw_Si47xx_ReadResp                                Hw_Si47xx.o
                                                  Ap_Radio.o
Hw_Si47xx_ReceiveResponse                         Hw_Si47xx.o
Hw_Si47xx_Reset                                   Hw_Si47xx.o
Hw_Si47xx_SET_PROPERTY                            Hw_Si47xx.o
                                                  Ap_Radio.o
Hw_Si47xx_SendCommand                             Hw_Si47xx.o
Hw_Si47xx_WaitForCTS                              Hw_Si47xx.o
Hw_Si47xx_WaitForSTC                              Hw_Si47xx.o
                                                  Ap_Radio.o
Hw_Sonic_ExIntDisable                             Hw_Sonic.o
Hw_Sonic_ExIntEnable                              Hw_Sonic.o
Hw_Sonic_GetDistanceMM                            Hw_Sonic.o
                                                  main.o
Hw_Sonic_GetDistanceTime                          Hw_Sonic.o
Hw_Sonic_GetPort                                  Hw_Sonic.o
Hw_Sonic_ISR                                      Hw_Sonic.o
Hw_Sonic_Init                                     Hw_Sonic.o
                                                  Hw.o
Hw_Sonic_Log                                      Hw_Sonic.o
Hw_Sonic_SetPortDirIN                             Hw_Sonic.o
Hw_Sonic_SetPortDirOUT                            Hw_Sonic.o
Hw_Sonic_SetPortHIGH                              Hw_Sonic.o
Hw_Sonic_SetPortLOW                               Hw_Sonic.o
Hw_Sonic_Tick                                     Hw_Sonic.o
Hw_StartUp_Init                                   Hw_StartUp.o
Hw_Timer_Delay_ms                                 Hw_Timer.o
                                                  Hw_N5110G.o
                                                  Hw_Si47xx.o
                                                  Ap_EduMenu.o
Hw_Timer_Get_CountValue                           Hw_Timer.o
                                                  Hw_KeyPad.o
                                                  Hw_Si47xx.o
                                                  main.o
Hw_Timer_Get_Handle                               Hw_Timer.o
Hw_Timer_Get_u16Count_Usec                        Hw_Timer.o
                                                  Hw_Sonic.o
Hw_Timer_ISR                                      Hw_Timer.o
Hw_Timer_Init                                     Hw_Timer.o
                                                  Hw.o
Hw_Timer_MeasureSetup                             Hw_Timer.o
Hw_Timer_Reset                                    Hw_Timer.o
Hw_Timer_Set                                      Hw_Timer.o
                                                  Hw_Sonic.o
                                                  Hw_7Seg.o
                                                  Hw_KeyPad.o
                                                  Hw_N5110G.o
                                                  Ap_GLcdMenu.o
                                                  main.o
Hw_Timer_Setup                                    Hw_Timer.o
Hw_Timer_SetupISR                                 Hw_Timer.o
Hw_Timer_Start                                    Hw_Timer.o
                                                  Hw_Sonic.o
                                                  Hw_7Seg.o
                                                  Hw_KeyPad.o
                                                  Hw_N5110G.o
                                                  Ap_GLcdMenu.o
                                                  main.o
Hw_Timer_Stop                                     Hw_Timer.o
                                                  Ap_GLcdMenu.o
Hw_Timer_Tick                                     Hw_Timer.o
Hw_Uart_Ch                                        Hw_Uart.o
Hw_Uart_Getch                                     Hw_Uart.o
                                                  main.o
Hw_Uart_GetchNoWait                               Hw_Uart.o
                                                  Ap_EduMenu.o
Hw_Uart_Init                                      Hw_Uart.o
                                                  Hw.o
Hw_Uart_Open                                      Hw_Uart.o
Hw_Uart_Open_COM1                                 Hw_Uart.o
Hw_Uart_Open_COM2                                 Hw_Uart.o
Hw_Uart_Print                                     Hw_Uart.o
                                                  Ap_EduMenu.o
                                                  main.o
Hw_Uart_PrintEx                                   Hw_Uart.o
Hw_Uart_Putch                                     Hw_Uart.o
                                                  Ap_StrCmd.o
Hw_Uart_Q_Buffer                                  Hw_Uart_Q.o
Hw_Uart_Q_End                                     Hw_Uart_Q.o
Hw_Uart_Q_Init                                    Hw_Uart_Q.o
                                                  Hw_Uart.o
Hw_Uart_Q_Pop                                     Hw_Uart_Q.o
                                                  Hw_VCom.o
                                                  Hw_Uart.o
Hw_Uart_Q_Push                                    Hw_Uart_Q.o
                                                  hw_config.o
                                                  Hw_Uart.o
Hw_Uart_Q_PushReady                               Hw_Uart_Q.o
Hw_Uart_Q_Size                                    Hw_Uart_Q.o
Hw_Uart_Q_Start                                   Hw_Uart_Q.o
Hw_Uart_SetReceiveFuncISR                         Hw_Uart.o
                                                  Ap_StrCmd.o
Hw_VBus_AddrTbl                                   Hw_VBus.o
Hw_VBus_ClrBit                                    Hw_VBus.o
                                                  Hw_CLcd.o
Hw_VBus_GetData                                   Hw_VBus.o
Hw_VBus_Init                                      Hw_VBus.o
Hw_VBus_ReadData                                  Hw_VBus.o
                                                  Hw_KeyPad.o
Hw_VBus_SetAddress                                Hw_VBus.o
Hw_VBus_SetBit                                    Hw_VBus.o
                                                  Hw_CLcd.o
Hw_VBus_SetData                                   Hw_VBus.o
Hw_VBus_SetDataPortInput                          Hw_VBus.o
Hw_VBus_SetDataPortOutput                         Hw_VBus.o
Hw_VBus_SetIdle                                   Hw_VBus.o
Hw_VBus_TglBit                                    Hw_VBus.o
Hw_VBus_WriteData                                 Hw_VBus.o
                                                  Hw_CLcd.o
                                                  Hw_7Seg.o
Hw_VCom_Getch                                     Hw_VCom.o
                                                  Hw_Uart.o
Hw_VCom_Init                                      Hw_VCom.o
                                                  Hw.o
Hw_VCom_Putch                                     Hw_VCom.o
                                                  Hw_Uart.o
Hw_VCom_RxdFuncPtr                                hw_config.o
                                                  Hw_VCom.o
Hw_VCom_SetReceiveFuncISR                         Hw_VCom.o
                                                  Hw_Uart.o
Hw_Wait                                           Hw.o
                                                  Hw_Si47xx.o
Hw_Wait_Usec                                      Hw.o
                                                  Hw_CLcd.o
                                                  Hw_I2C_SW.o
In0_Process                                       usb_core.o
                                                  usb_int.o
KeyPad_DownKeyEvent                               Ap_EduMenu.o
KeyPad_UpKeyEvent                                 Ap_EduMenu.o
LED_Tick                                          main.o
Lb_Util_PaseArgs                                  Lb_Util.o
                                                  Ap_StrCmd_MOVE.o
Lb_Util_atoi                                      Lb_Util.o
                                                  Ap_StrCmd_MOVE.o
Lb_printf                                         Lb_Printf.o
                                                  Ap_EduMenu.o
                                                  Ap_GLcdMenu.o
                                                  Ap_RadioMenu.o
                                                  main.o
Lb_sprintf                                        Lb_Printf.o
                                                  Hw_Uart.o
                                                  Ap_StrCmd.o
Lb_vsprintf                                       Lb_Printf.o
                                                  Hw_CLcd.o
                                                  Hw_7Seg.o
                                                  Hw_N5110G.o
                                                  Ap_StrCmd.o
Leave_LowPowerMode                                hw_config.o
                                                  usb_pwr.o
NOP_Process                                       usb_core.o
                                                  usb_prop.o
                                                  usb_istr.o
Out0_Process                                      usb_core.o
                                                  usb_int.o
PMAToUserBufferCopy                               usb_mem.o
                                                  usb_sil.o
                                                  usb_core.o
Post0_Process                                     usb_core.o
PowerOff                                          usb_pwr.o
PowerOn                                           usb_pwr.o
                                                  usb_prop.o
Request                                           usb_prop.o
Resume                                            usb_pwr.o
                                                  usb_istr.o
ResumeS                                           usb_pwr.o
Resume_Init                                       usb_pwr.o
SOF_Callback                                      usb_endp.o
                                                  usb_istr.o
SaveRState                                        usb_int.o
                                                  usb_core.o
SaveState                                         usb_init.o
SaveTState                                        usb_int.o
                                                  usb_core.o
Seg_Count                                         Ap_EduMenu.o
SetBTABLE                                         usb_regs.o
                                                  usb_prop.o
SetCNTR                                           usb_regs.o
SetDADDR                                          usb_regs.o
SetDeviceAddress                                  usb_core.o
                                                  usb_prop.o
SetDouBleBuffEPStall                              usb_regs.o
SetENDPOINT                                       usb_regs.o
SetEPAddress                                      usb_regs.o
SetEPCountRxReg                                   usb_regs.o
SetEPDblBuf0Addr                                  usb_regs.o
SetEPDblBuf0Count                                 usb_regs.o
SetEPDblBuf1Addr                                  usb_regs.o
SetEPDblBuf1Count                                 usb_regs.o
SetEPDblBuffAddr                                  usb_regs.o
SetEPDblBuffCount                                 usb_regs.o
SetEPDoubleBuff                                   usb_regs.o
SetEPRxAddr                                       usb_regs.o
                                                  usb_prop.o
SetEPRxCount                                      usb_regs.o
                                                  usb_core.o
                                                  usb_prop.o
SetEPRxStatus                                     usb_regs.o
                                                  usb_prop.o
SetEPRxValid                                      usb_regs.o
                                                  usb_prop.o
                                                  usb_endp.o
SetEPTxAddr                                       usb_regs.o
                                                  usb_prop.o
SetEPTxCount                                      usb_regs.o
                                                  usb_sil.o
                                                  usb_core.o
                                                  hw_config.o
                                                  usb_endp.o
SetEPTxStatus                                     usb_regs.o
                                                  usb_core.o
                                                  usb_prop.o
SetEPTxValid                                      usb_regs.o
                                                  hw_config.o
                                                  usb_endp.o
SetEPType                                         usb_regs.o
                                                  usb_prop.o
SetEP_KIND                                        usb_regs.o
SetISTR                                           usb_regs.o
Set_Status_Out                                    usb_regs.o
Set_System                                        hw_config.o
                                                  Hw_VCom.o
Set_USBClock                                      hw_config.o
                                                  Hw_VCom.o
Setup0_Process                                    usb_core.o
                                                  usb_int.o
Standard_ClearFeature                             usb_core.o
Standard_GetConfiguration                         usb_core.o
Standard_GetDescriptorData                        usb_core.o
                                                  usb_prop.o
Standard_GetInterface                             usb_core.o
Standard_GetStatus                                usb_core.o
Standard_SetConfiguration                         usb_core.o
Standard_SetDeviceFeature                         usb_core.o
Standard_SetEndPointFeature                       usb_core.o
Standard_SetInterface                             usb_core.o
StatusInfo                                        usb_core.o
StrCmp                                            Lb_Printf.o
StrNCmp                                           Lb_Printf.o
StrPrintBufIndex                                  Lb_Printf.o
StrPrintMode                                      Lb_Printf.o
String_Descriptor                                 usb_prop.o
Suspend                                           usb_pwr.o
                                                  usb_istr.o
Test_DCMOTOR                                      main.o
TimerDebug_Tick                                   Ap_RadioMenu.o
ToWord                                            usb_regs.o
ToggleDTOG_RX                                     usb_regs.o
ToggleDTOG_TX                                     usb_regs.o
USART_Rx_Buffer                                   hw_config.o
                                                  usb_endp.o
USART_Rx_length                                   hw_config.o
                                                  usb_endp.o
USART_Rx_ptr_in                                   hw_config.o
USART_Rx_ptr_out                                  hw_config.o
                                                  usb_endp.o
USART_To_USB_Send_Data                            hw_config.o
USBWakeUp_IRQHandler                              hw_config.o
USB_Cable_Config                                  hw_config.o
                                                  usb_pwr.o
USB_Init                                          usb_init.o
                                                  Hw_VCom.o
USB_Interrupts_Config                             hw_config.o
                                                  Hw_VCom.o
USB_Istr                                          usb_istr.o
                                                  hw_config.o
USB_LP_IRQHandler                                 hw_config.o
USB_Rx_Buffer                                     usb_endp.o
USB_SIL_Init                                      usb_sil.o
                                                  usb_prop.o
USB_SIL_Read                                      usb_sil.o
                                                  usb_endp.o
USB_SIL_Write                                     usb_sil.o
USB_Send_Data                                     hw_config.o
                                                  Hw_VCom.o
USB_To_USART_Send_Data                            hw_config.o
                                                  usb_endp.o
USB_Tx_State                                      hw_config.o
                                                  usb_endp.o
UserToPMABufferCopy                               usb_mem.o
                                                  usb_sil.o
                                                  usb_core.o
                                                  hw_config.o
                                                  usb_endp.o
User_Standard_Requests                            usb_prop.o
                                                  usb_init.o
Virtual_Com_Port_ConfigDescriptor                 usb_desc.o
                                                  usb_prop.o
Virtual_Com_Port_Data_Setup                       usb_prop.o
Virtual_Com_Port_DeviceDescriptor                 usb_desc.o
                                                  usb_prop.o
Virtual_Com_Port_GetConfigDescriptor              usb_prop.o
Virtual_Com_Port_GetDeviceDescriptor              usb_prop.o
Virtual_Com_Port_GetLineCoding                    usb_prop.o
Virtual_Com_Port_GetStringDescriptor              usb_prop.o
Virtual_Com_Port_Get_Interface_Setting            usb_prop.o
Virtual_Com_Port_NoData_Setup                     usb_prop.o
Virtual_Com_Port_Reset                            usb_prop.o
Virtual_Com_Port_SetConfiguration                 usb_prop.o
Virtual_Com_Port_SetDeviceAddress                 usb_prop.o
Virtual_Com_Port_SetLineCoding                    usb_prop.o
Virtual_Com_Port_Status_In                        usb_prop.o
Virtual_Com_Port_Status_Out                       usb_prop.o
Virtual_Com_Port_StringLangID                     usb_desc.o
                                                  usb_prop.o
Virtual_Com_Port_StringProduct                    usb_desc.o
                                                  usb_prop.o
Virtual_Com_Port_StringSerial                     usb_desc.o
                                                  hw_config.o
                                                  usb_prop.o
Virtual_Com_Port_StringVendor                     usb_desc.o
                                                  usb_prop.o
Virtual_Com_Port_init                             usb_prop.o
_Balloc                                           /Users/imac/Develop/stm32f4/arm_gcc/gcc-arm-none-eabi-4_7-2013q3/bin/../lib/gcc/arm-none-eabi/4.7.4/../../../../arm-none-eabi/lib/armv7-m/libc.a(lib_a-mprec.o)
                                                  /Users/imac/Develop/stm32f4/arm_gcc/gcc-arm-none-eabi-4_7-2013q3/bin/../lib/gcc/arm-none-eabi/4.7.4/../../../../arm-none-eabi/lib/armv7-m/libc.a(lib_a-gdtoa-gethex.o)
                                                  /Users/imac/Develop/stm32f4/arm_gcc/gcc-arm-none-eabi-4_7-2013q3/bin/../lib/gcc/arm-none-eabi/4.7.4/../../../../arm-none-eabi/lib/armv7-m/libc.a(lib_a-dtoa.o)
                                                  /Users/imac/Develop/stm32f4/arm_gcc/gcc-arm-none-eabi-4_7-2013q3/bin/../lib/gcc/arm-none-eabi/4.7.4/../../../../arm-none-eabi/lib/armv7-m/libc.a(lib_a-strtod.o)
_Bfree                                            /Users/imac/Develop/stm32f4/arm_gcc/gcc-arm-none-eabi-4_7-2013q3/bin/../lib/gcc/arm-none-eabi/4.7.4/../../../../arm-none-eabi/lib/armv7-m/libc.a(lib_a-mprec.o)
                                                  /Users/imac/Develop/stm32f4/arm_gcc/gcc-arm-none-eabi-4_7-2013q3/bin/../lib/gcc/arm-none-eabi/4.7.4/../../../../arm-none-eabi/lib/armv7-m/libc.a(lib_a-gdtoa-gethex.o)
                                                  /Users/imac/Develop/stm32f4/arm_gcc/gcc-arm-none-eabi-4_7-2013q3/bin/../lib/gcc/arm-none-eabi/4.7.4/../../../../arm-none-eabi/lib/armv7-m/libc.a(lib_a-dtoa.o)
                                                  /Users/imac/Develop/stm32f4/arm_gcc/gcc-arm-none-eabi-4_7-2013q3/bin/../lib/gcc/arm-none-eabi/4.7.4/../../../../arm-none-eabi/lib/armv7-m/libc.a(lib_a-strtod.o)
_PathLocale                                       /Users/imac/Develop/stm32f4/arm_gcc/gcc-arm-none-eabi-4_7-2013q3/bin/../lib/gcc/arm-none-eabi/4.7.4/../../../../arm-none-eabi/lib/armv7-m/libc.a(lib_a-locale.o)
__WFI                                             hw_config.o
                                                  usb_pwr.o
__adddf3                                          /Users/imac/Develop/stm32f4/arm_gcc/gcc-arm-none-eabi-4_7-2013q3/bin/../lib/gcc/arm-none-eabi/4.7.4/armv7-m/libgcc.a(_arm_addsubdf3.o)
__aeabi_cdcmpeq                                   /Users/imac/Develop/stm32f4/arm_gcc/gcc-arm-none-eabi-4_7-2013q3/bin/../lib/gcc/arm-none-eabi/4.7.4/armv7-m/libgcc.a(_arm_cmpdf2.o)
__aeabi_cdcmple                                   /Users/imac/Develop/stm32f4/arm_gcc/gcc-arm-none-eabi-4_7-2013q3/bin/../lib/gcc/arm-none-eabi/4.7.4/armv7-m/libgcc.a(_arm_cmpdf2.o)
__aeabi_cdrcmple                                  /Users/imac/Develop/stm32f4/arm_gcc/gcc-arm-none-eabi-4_7-2013q3/bin/../lib/gcc/arm-none-eabi/4.7.4/armv7-m/libgcc.a(_arm_cmpdf2.o)
__aeabi_d2f                                       /Users/imac/Develop/stm32f4/arm_gcc/gcc-arm-none-eabi-4_7-2013q3/bin/../lib/gcc/arm-none-eabi/4.7.4/armv7-m/libgcc.a(_arm_truncdfsf2.o)
                                                  /Users/imac/Develop/stm32f4/arm_gcc/gcc-arm-none-eabi-4_7-2013q3/bin/../lib/gcc/arm-none-eabi/4.7.4/../../../../arm-none-eabi/lib/armv7-m/libc.a(lib_a-strtod.o)
                                                  /Users/imac/Develop/stm32f4/arm_gcc/gcc-arm-none-eabi-4_7-2013q3/bin/../lib/gcc/arm-none-eabi/4.7.4/../../../../arm-none-eabi/lib/armv7-m/libc.a(lib_a-svfscanf.o)
__aeabi_d2iz                                      /Users/imac/Develop/stm32f4/arm_gcc/gcc-arm-none-eabi-4_7-2013q3/bin/../lib/gcc/arm-none-eabi/4.7.4/armv7-m/libgcc.a(_arm_fixdfsi.o)
                                                  /Users/imac/Develop/stm32f4/arm_gcc/gcc-arm-none-eabi-4_7-2013q3/bin/../lib/gcc/arm-none-eabi/4.7.4/../../../../arm-none-eabi/lib/armv7-m/libc.a(lib_a-dtoa.o)
                                                  /Users/imac/Develop/stm32f4/arm_gcc/gcc-arm-none-eabi-4_7-2013q3/bin/../lib/gcc/arm-none-eabi/4.7.4/../../../../arm-none-eabi/lib/armv7-m/libc.a(lib_a-strtod.o)
__aeabi_d2uiz                                     /Users/imac/Develop/stm32f4/arm_gcc/gcc-arm-none-eabi-4_7-2013q3/bin/../lib/gcc/arm-none-eabi/4.7.4/armv7-m/libgcc.a(_arm_fixunsdfsi.o)
                                                  /Users/imac/Develop/stm32f4/arm_gcc/gcc-arm-none-eabi-4_7-2013q3/bin/../lib/gcc/arm-none-eabi/4.7.4/../../../../arm-none-eabi/lib/armv7-m/libc.a(lib_a-strtod.o)
__aeabi_dadd                                      /Users/imac/Develop/stm32f4/arm_gcc/gcc-arm-none-eabi-4_7-2013q3/bin/../lib/gcc/arm-none-eabi/4.7.4/armv7-m/libgcc.a(_arm_addsubdf3.o)
                                                  /Users/imac/Develop/stm32f4/arm_gcc/gcc-arm-none-eabi-4_7-2013q3/bin/../lib/gcc/arm-none-eabi/4.7.4/../../../../arm-none-eabi/lib/armv7-m/libc.a(lib_a-dtoa.o)
                                                  /Users/imac/Develop/stm32f4/arm_gcc/gcc-arm-none-eabi-4_7-2013q3/bin/../lib/gcc/arm-none-eabi/4.7.4/../../../../arm-none-eabi/lib/armv7-m/libc.a(lib_a-strtod.o)
__aeabi_dcmpeq                                    /Users/imac/Develop/stm32f4/arm_gcc/gcc-arm-none-eabi-4_7-2013q3/bin/../lib/gcc/arm-none-eabi/4.7.4/armv7-m/libgcc.a(_arm_cmpdf2.o)
                                                  /Users/imac/Develop/stm32f4/arm_gcc/gcc-arm-none-eabi-4_7-2013q3/bin/../lib/gcc/arm-none-eabi/4.7.4/../../../../arm-none-eabi/lib/armv7-m/libc.a(lib_a-dtoa.o)
                                                  /Users/imac/Develop/stm32f4/arm_gcc/gcc-arm-none-eabi-4_7-2013q3/bin/../lib/gcc/arm-none-eabi/4.7.4/../../../../arm-none-eabi/lib/armv7-m/libc.a(lib_a-svfprintf.o)
                                                  /Users/imac/Develop/stm32f4/arm_gcc/gcc-arm-none-eabi-4_7-2013q3/bin/../lib/gcc/arm-none-eabi/4.7.4/../../../../arm-none-eabi/lib/armv7-m/libc.a(lib_a-strtod.o)
__aeabi_dcmpge                                    /Users/imac/Develop/stm32f4/arm_gcc/gcc-arm-none-eabi-4_7-2013q3/bin/../lib/gcc/arm-none-eabi/4.7.4/armv7-m/libgcc.a(_arm_cmpdf2.o)
                                                  /Users/imac/Develop/stm32f4/arm_gcc/gcc-arm-none-eabi-4_7-2013q3/bin/../lib/gcc/arm-none-eabi/4.7.4/../../../../arm-none-eabi/lib/armv7-m/libc.a(lib_a-dtoa.o)
__aeabi_dcmpgt                                    /Users/imac/Develop/stm32f4/arm_gcc/gcc-arm-none-eabi-4_7-2013q3/bin/../lib/gcc/arm-none-eabi/4.7.4/armv7-m/libgcc.a(_arm_cmpdf2.o)
                                                  /Users/imac/Develop/stm32f4/arm_gcc/gcc-arm-none-eabi-4_7-2013q3/bin/../lib/gcc/arm-none-eabi/4.7.4/../../../../arm-none-eabi/lib/armv7-m/libc.a(lib_a-dtoa.o)
                                                  /Users/imac/Develop/stm32f4/arm_gcc/gcc-arm-none-eabi-4_7-2013q3/bin/../lib/gcc/arm-none-eabi/4.7.4/../../../../arm-none-eabi/lib/armv7-m/libc.a(lib_a-strtod.o)
__aeabi_dcmple                                    /Users/imac/Develop/stm32f4/arm_gcc/gcc-arm-none-eabi-4_7-2013q3/bin/../lib/gcc/arm-none-eabi/4.7.4/armv7-m/libgcc.a(_arm_cmpdf2.o)
                                                  /Users/imac/Develop/stm32f4/arm_gcc/gcc-arm-none-eabi-4_7-2013q3/bin/../lib/gcc/arm-none-eabi/4.7.4/../../../../arm-none-eabi/lib/armv7-m/libc.a(lib_a-strtod.o)
__aeabi_dcmplt                                    /Users/imac/Develop/stm32f4/arm_gcc/gcc-arm-none-eabi-4_7-2013q3/bin/../lib/gcc/arm-none-eabi/4.7.4/armv7-m/libgcc.a(_arm_cmpdf2.o)
                                                  /Users/imac/Develop/stm32f4/arm_gcc/gcc-arm-none-eabi-4_7-2013q3/bin/../lib/gcc/arm-none-eabi/4.7.4/../../../../arm-none-eabi/lib/armv7-m/libc.a(lib_a-dtoa.o)
                                                  /Users/imac/Develop/stm32f4/arm_gcc/gcc-arm-none-eabi-4_7-2013q3/bin/../lib/gcc/arm-none-eabi/4.7.4/../../../../arm-none-eabi/lib/armv7-m/libc.a(lib_a-svfprintf.o)
                                                  /Users/imac/Develop/stm32f4/arm_gcc/gcc-arm-none-eabi-4_7-2013q3/bin/../lib/gcc/arm-none-eabi/4.7.4/../../../../arm-none-eabi/lib/armv7-m/libc.a(lib_a-strtod.o)
__aeabi_ddiv                                      /Users/imac/Develop/stm32f4/arm_gcc/gcc-arm-none-eabi-4_7-2013q3/bin/../lib/gcc/arm-none-eabi/4.7.4/armv7-m/libgcc.a(_arm_muldivdf3.o)
                                                  /Users/imac/Develop/stm32f4/arm_gcc/gcc-arm-none-eabi-4_7-2013q3/bin/../lib/gcc/arm-none-eabi/4.7.4/../../../../arm-none-eabi/lib/armv7-m/libc.a(lib_a-mprec.o)
                                                  /Users/imac/Develop/stm32f4/arm_gcc/gcc-arm-none-eabi-4_7-2013q3/bin/../lib/gcc/arm-none-eabi/4.7.4/../../../../arm-none-eabi/lib/armv7-m/libc.a(lib_a-dtoa.o)
                                                  /Users/imac/Develop/stm32f4/arm_gcc/gcc-arm-none-eabi-4_7-2013q3/bin/../lib/gcc/arm-none-eabi/4.7.4/../../../../arm-none-eabi/lib/armv7-m/libc.a(lib_a-strtod.o)
__aeabi_dmul                                      /Users/imac/Develop/stm32f4/arm_gcc/gcc-arm-none-eabi-4_7-2013q3/bin/../lib/gcc/arm-none-eabi/4.7.4/armv7-m/libgcc.a(_arm_muldivdf3.o)
                                                  /Users/imac/Develop/stm32f4/arm_gcc/gcc-arm-none-eabi-4_7-2013q3/bin/../lib/gcc/arm-none-eabi/4.7.4/../../../../arm-none-eabi/lib/armv7-m/libc.a(lib_a-mprec.o)
                                                  /Users/imac/Develop/stm32f4/arm_gcc/gcc-arm-none-eabi-4_7-2013q3/bin/../lib/gcc/arm-none-eabi/4.7.4/../../../../arm-none-eabi/lib/armv7-m/libc.a(lib_a-dtoa.o)
                                                  /Users/imac/Develop/stm32f4/arm_gcc/gcc-arm-none-eabi-4_7-2013q3/bin/../lib/gcc/arm-none-eabi/4.7.4/../../../../arm-none-eabi/lib/armv7-m/libc.a(lib_a-strtod.o)
__aeabi_drsub                                     /Users/imac/Develop/stm32f4/arm_gcc/gcc-arm-none-eabi-4_7-2013q3/bin/../lib/gcc/arm-none-eabi/4.7.4/armv7-m/libgcc.a(_arm_addsubdf3.o)
__aeabi_dsub                                      /Users/imac/Develop/stm32f4/arm_gcc/gcc-arm-none-eabi-4_7-2013q3/bin/../lib/gcc/arm-none-eabi/4.7.4/armv7-m/libgcc.a(_arm_addsubdf3.o)
                                                  /Users/imac/Develop/stm32f4/arm_gcc/gcc-arm-none-eabi-4_7-2013q3/bin/../lib/gcc/arm-none-eabi/4.7.4/../../../../arm-none-eabi/lib/armv7-m/libc.a(lib_a-dtoa.o)
                                                  /Users/imac/Develop/stm32f4/arm_gcc/gcc-arm-none-eabi-4_7-2013q3/bin/../lib/gcc/arm-none-eabi/4.7.4/../../../../arm-none-eabi/lib/armv7-m/libc.a(lib_a-strtod.o)
__aeabi_f2d                                       /Users/imac/Develop/stm32f4/arm_gcc/gcc-arm-none-eabi-4_7-2013q3/bin/../lib/gcc/arm-none-eabi/4.7.4/armv7-m/libgcc.a(_arm_addsubdf3.o)
__aeabi_i2d                                       /Users/imac/Develop/stm32f4/arm_gcc/gcc-arm-none-eabi-4_7-2013q3/bin/../lib/gcc/arm-none-eabi/4.7.4/armv7-m/libgcc.a(_arm_addsubdf3.o)
                                                  /Users/imac/Develop/stm32f4/arm_gcc/gcc-arm-none-eabi-4_7-2013q3/bin/../lib/gcc/arm-none-eabi/4.7.4/../../../../arm-none-eabi/lib/armv7-m/libc.a(lib_a-dtoa.o)
                                                  /Users/imac/Develop/stm32f4/arm_gcc/gcc-arm-none-eabi-4_7-2013q3/bin/../lib/gcc/arm-none-eabi/4.7.4/../../../../arm-none-eabi/lib/armv7-m/libc.a(lib_a-strtod.o)
__aeabi_idiv0                                     /Users/imac/Develop/stm32f4/arm_gcc/gcc-arm-none-eabi-4_7-2013q3/bin/../lib/gcc/arm-none-eabi/4.7.4/armv7-m/libgcc.a(_dvmd_tls.o)
__aeabi_l2d                                       /Users/imac/Develop/stm32f4/arm_gcc/gcc-arm-none-eabi-4_7-2013q3/bin/../lib/gcc/arm-none-eabi/4.7.4/armv7-m/libgcc.a(_arm_addsubdf3.o)
__aeabi_ldiv0                                     /Users/imac/Develop/stm32f4/arm_gcc/gcc-arm-none-eabi-4_7-2013q3/bin/../lib/gcc/arm-none-eabi/4.7.4/armv7-m/libgcc.a(_dvmd_tls.o)
                                                  /Users/imac/Develop/stm32f4/arm_gcc/gcc-arm-none-eabi-4_7-2013q3/bin/../lib/gcc/arm-none-eabi/4.7.4/armv7-m/libgcc.a(_aeabi_uldivmod.o)
__aeabi_ui2d                                      /Users/imac/Develop/stm32f4/arm_gcc/gcc-arm-none-eabi-4_7-2013q3/bin/../lib/gcc/arm-none-eabi/4.7.4/armv7-m/libgcc.a(_arm_addsubdf3.o)
                                                  /Users/imac/Develop/stm32f4/arm_gcc/gcc-arm-none-eabi-4_7-2013q3/bin/../lib/gcc/arm-none-eabi/4.7.4/../../../../arm-none-eabi/lib/armv7-m/libc.a(lib_a-dtoa.o)
                                                  /Users/imac/Develop/stm32f4/arm_gcc/gcc-arm-none-eabi-4_7-2013q3/bin/../lib/gcc/arm-none-eabi/4.7.4/../../../../arm-none-eabi/lib/armv7-m/libc.a(lib_a-strtod.o)
__aeabi_ul2d                                      /Users/imac/Develop/stm32f4/arm_gcc/gcc-arm-none-eabi-4_7-2013q3/bin/../lib/gcc/arm-none-eabi/4.7.4/armv7-m/libgcc.a(_arm_addsubdf3.o)
__aeabi_uldivmod                                  /Users/imac/Develop/stm32f4/arm_gcc/gcc-arm-none-eabi-4_7-2013q3/bin/../lib/gcc/arm-none-eabi/4.7.4/armv7-m/libgcc.a(_aeabi_uldivmod.o)
                                                  /Users/imac/Develop/stm32f4/arm_gcc/gcc-arm-none-eabi-4_7-2013q3/bin/../lib/gcc/arm-none-eabi/4.7.4/../../../../arm-none-eabi/lib/armv7-m/libc.a(lib_a-svfiprintf.o)
                                                  /Users/imac/Develop/stm32f4/arm_gcc/gcc-arm-none-eabi-4_7-2013q3/bin/../lib/gcc/arm-none-eabi/4.7.4/../../../../arm-none-eabi/lib/armv7-m/libc.a(lib_a-svfprintf.o)
                                                  /Users/imac/Develop/stm32f4/arm_gcc/gcc-arm-none-eabi-4_7-2013q3/bin/../lib/gcc/arm-none-eabi/4.7.4/../../../../arm-none-eabi/lib/armv7-m/libc.a(lib_a-strtoull_r.o)
                                                  /Users/imac/Develop/stm32f4/arm_gcc/gcc-arm-none-eabi-4_7-2013q3/bin/../lib/gcc/arm-none-eabi/4.7.4/../../../../arm-none-eabi/lib/armv7-m/libc.a(lib_a-strtoll_r.o)
__any_on                                          /Users/imac/Develop/stm32f4/arm_gcc/gcc-arm-none-eabi-4_7-2013q3/bin/../lib/gcc/arm-none-eabi/4.7.4/../../../../arm-none-eabi/lib/armv7-m/libc.a(lib_a-mprec.o)
                                                  /Users/imac/Develop/stm32f4/arm_gcc/gcc-arm-none-eabi-4_7-2013q3/bin/../lib/gcc/arm-none-eabi/4.7.4/../../../../arm-none-eabi/lib/armv7-m/libc.a(lib_a-gdtoa-gethex.o)
__ascii_mbtowc                                    /Users/imac/Develop/stm32f4/arm_gcc/gcc-arm-none-eabi-4_7-2013q3/bin/../lib/gcc/arm-none-eabi/4.7.4/../../../../arm-none-eabi/lib/armv7-m/libc.a(lib_a-mbtowc_r.o)
__b2d                                             /Users/imac/Develop/stm32f4/arm_gcc/gcc-arm-none-eabi-4_7-2013q3/bin/../lib/gcc/arm-none-eabi/4.7.4/../../../../arm-none-eabi/lib/armv7-m/libc.a(lib_a-mprec.o)
__cmpdf2                                          /Users/imac/Develop/stm32f4/arm_gcc/gcc-arm-none-eabi-4_7-2013q3/bin/../lib/gcc/arm-none-eabi/4.7.4/armv7-m/libgcc.a(_arm_cmpdf2.o)
__copybits                                        /Users/imac/Develop/stm32f4/arm_gcc/gcc-arm-none-eabi-4_7-2013q3/bin/../lib/gcc/arm-none-eabi/4.7.4/../../../../arm-none-eabi/lib/armv7-m/libc.a(lib_a-mprec.o)
                                                  /Users/imac/Develop/stm32f4/arm_gcc/gcc-arm-none-eabi-4_7-2013q3/bin/../lib/gcc/arm-none-eabi/4.7.4/../../../../arm-none-eabi/lib/armv7-m/libc.a(lib_a-strtod.o)
__ctype_ptr__                                     /Users/imac/Develop/stm32f4/arm_gcc/gcc-arm-none-eabi-4_7-2013q3/bin/../lib/gcc/arm-none-eabi/4.7.4/../../../../arm-none-eabi/lib/armv7-m/libc.a(lib_a-ctype_.o)
                                                  /Users/imac/Develop/stm32f4/arm_gcc/gcc-arm-none-eabi-4_7-2013q3/bin/../lib/gcc/arm-none-eabi/4.7.4/../../../../arm-none-eabi/lib/armv7-m/libc.a(lib_a-svfiscanf.o)
                                                  /Users/imac/Develop/stm32f4/arm_gcc/gcc-arm-none-eabi-4_7-2013q3/bin/../lib/gcc/arm-none-eabi/4.7.4/../../../../arm-none-eabi/lib/armv7-m/libc.a(lib_a-strtoull_r.o)
                                                  /Users/imac/Develop/stm32f4/arm_gcc/gcc-arm-none-eabi-4_7-2013q3/bin/../lib/gcc/arm-none-eabi/4.7.4/../../../../arm-none-eabi/lib/armv7-m/libc.a(lib_a-strtoul.o)
                                                  /Users/imac/Develop/stm32f4/arm_gcc/gcc-arm-none-eabi-4_7-2013q3/bin/../lib/gcc/arm-none-eabi/4.7.4/../../../../arm-none-eabi/lib/armv7-m/libc.a(lib_a-strtoll_r.o)
                                                  /Users/imac/Develop/stm32f4/arm_gcc/gcc-arm-none-eabi-4_7-2013q3/bin/../lib/gcc/arm-none-eabi/4.7.4/../../../../arm-none-eabi/lib/armv7-m/libc.a(lib_a-strtol.o)
                                                  /Users/imac/Develop/stm32f4/arm_gcc/gcc-arm-none-eabi-4_7-2013q3/bin/../lib/gcc/arm-none-eabi/4.7.4/../../../../arm-none-eabi/lib/armv7-m/libc.a(lib_a-iswspace.o)
                                                  /Users/imac/Develop/stm32f4/arm_gcc/gcc-arm-none-eabi-4_7-2013q3/bin/../lib/gcc/arm-none-eabi/4.7.4/../../../../arm-none-eabi/lib/armv7-m/libc.a(lib_a-svfscanf.o)
                                                  Ap_StrCmd.o
__d2b                                             /Users/imac/Develop/stm32f4/arm_gcc/gcc-arm-none-eabi-4_7-2013q3/bin/../lib/gcc/arm-none-eabi/4.7.4/../../../../arm-none-eabi/lib/armv7-m/libc.a(lib_a-mprec.o)
                                                  /Users/imac/Develop/stm32f4/arm_gcc/gcc-arm-none-eabi-4_7-2013q3/bin/../lib/gcc/arm-none-eabi/4.7.4/../../../../arm-none-eabi/lib/armv7-m/libc.a(lib_a-dtoa.o)
                                                  /Users/imac/Develop/stm32f4/arm_gcc/gcc-arm-none-eabi-4_7-2013q3/bin/../lib/gcc/arm-none-eabi/4.7.4/../../../../arm-none-eabi/lib/armv7-m/libc.a(lib_a-strtod.o)
__divdf3                                          /Users/imac/Develop/stm32f4/arm_gcc/gcc-arm-none-eabi-4_7-2013q3/bin/../lib/gcc/arm-none-eabi/4.7.4/armv7-m/libgcc.a(_arm_muldivdf3.o)
__divdi3                                          /Users/imac/Develop/stm32f4/arm_gcc/gcc-arm-none-eabi-4_7-2013q3/bin/../lib/gcc/arm-none-eabi/4.7.4/armv7-m/libgcc.a(_divdi3.o)
                                                  /Users/imac/Develop/stm32f4/arm_gcc/gcc-arm-none-eabi-4_7-2013q3/bin/../lib/gcc/arm-none-eabi/4.7.4/armv7-m/libgcc.a(bpabi.o)
__eqdf2                                           /Users/imac/Develop/stm32f4/arm_gcc/gcc-arm-none-eabi-4_7-2013q3/bin/../lib/gcc/arm-none-eabi/4.7.4/armv7-m/libgcc.a(_arm_cmpdf2.o)
__errno                                           /Users/imac/Develop/stm32f4/arm_gcc/gcc-arm-none-eabi-4_7-2013q3/bin/../lib/gcc/arm-none-eabi/4.7.4/../../../../arm-none-eabi/lib/armv7-m/libc.a(lib_a-errno.o)
                                                  Lb_Util.o
__extendsfdf2                                     /Users/imac/Develop/stm32f4/arm_gcc/gcc-arm-none-eabi-4_7-2013q3/bin/../lib/gcc/arm-none-eabi/4.7.4/armv7-m/libgcc.a(_arm_addsubdf3.o)
__fixdfsi                                         /Users/imac/Develop/stm32f4/arm_gcc/gcc-arm-none-eabi-4_7-2013q3/bin/../lib/gcc/arm-none-eabi/4.7.4/armv7-m/libgcc.a(_arm_fixdfsi.o)
__fixunsdfsi                                      /Users/imac/Develop/stm32f4/arm_gcc/gcc-arm-none-eabi-4_7-2013q3/bin/../lib/gcc/arm-none-eabi/4.7.4/armv7-m/libgcc.a(_arm_fixunsdfsi.o)
__floatdidf                                       /Users/imac/Develop/stm32f4/arm_gcc/gcc-arm-none-eabi-4_7-2013q3/bin/../lib/gcc/arm-none-eabi/4.7.4/armv7-m/libgcc.a(_arm_addsubdf3.o)
__floatsidf                                       /Users/imac/Develop/stm32f4/arm_gcc/gcc-arm-none-eabi-4_7-2013q3/bin/../lib/gcc/arm-none-eabi/4.7.4/armv7-m/libgcc.a(_arm_addsubdf3.o)
__floatundidf                                     /Users/imac/Develop/stm32f4/arm_gcc/gcc-arm-none-eabi-4_7-2013q3/bin/../lib/gcc/arm-none-eabi/4.7.4/armv7-m/libgcc.a(_arm_addsubdf3.o)
__floatunsidf                                     /Users/imac/Develop/stm32f4/arm_gcc/gcc-arm-none-eabi-4_7-2013q3/bin/../lib/gcc/arm-none-eabi/4.7.4/armv7-m/libgcc.a(_arm_addsubdf3.o)
__fp_lock_all                                     /Users/imac/Develop/stm32f4/arm_gcc/gcc-arm-none-eabi-4_7-2013q3/bin/../lib/gcc/arm-none-eabi/4.7.4/../../../../arm-none-eabi/lib/armv7-m/libc.a(lib_a-findfp.o)
__fp_unlock_all                                   /Users/imac/Develop/stm32f4/arm_gcc/gcc-arm-none-eabi-4_7-2013q3/bin/../lib/gcc/arm-none-eabi/4.7.4/../../../../arm-none-eabi/lib/armv7-m/libc.a(lib_a-findfp.o)
__fpclassifyd                                     /Users/imac/Develop/stm32f4/arm_gcc/gcc-arm-none-eabi-4_7-2013q3/bin/../lib/gcc/arm-none-eabi/4.7.4/../../../../arm-none-eabi/lib/armv7-m/libc.a(lib_a-s_fpclassify.o)
                                                  /Users/imac/Develop/stm32f4/arm_gcc/gcc-arm-none-eabi-4_7-2013q3/bin/../lib/gcc/arm-none-eabi/4.7.4/../../../../arm-none-eabi/lib/armv7-m/libc.a(lib_a-svfprintf.o)
                                                  /Users/imac/Develop/stm32f4/arm_gcc/gcc-arm-none-eabi-4_7-2013q3/bin/../lib/gcc/arm-none-eabi/4.7.4/../../../../arm-none-eabi/lib/armv7-m/libc.a(lib_a-strtod.o)
                                                  /Users/imac/Develop/stm32f4/arm_gcc/gcc-arm-none-eabi-4_7-2013q3/bin/../lib/gcc/arm-none-eabi/4.7.4/../../../../arm-none-eabi/lib/armv7-m/libc.a(lib_a-svfscanf.o)
__gedf2                                           /Users/imac/Develop/stm32f4/arm_gcc/gcc-arm-none-eabi-4_7-2013q3/bin/../lib/gcc/arm-none-eabi/4.7.4/armv7-m/libgcc.a(_arm_cmpdf2.o)
__get_MSP                                         Lb_Util.o
__gethex                                          /Users/imac/Develop/stm32f4/arm_gcc/gcc-arm-none-eabi-4_7-2013q3/bin/../lib/gcc/arm-none-eabi/4.7.4/../../../../arm-none-eabi/lib/armv7-m/libc.a(lib_a-gdtoa-gethex.o)
                                                  /Users/imac/Develop/stm32f4/arm_gcc/gcc-arm-none-eabi-4_7-2013q3/bin/../lib/gcc/arm-none-eabi/4.7.4/../../../../arm-none-eabi/lib/armv7-m/libc.a(lib_a-strtod.o)
__gnu_ldivmod_helper                              /Users/imac/Develop/stm32f4/arm_gcc/gcc-arm-none-eabi-4_7-2013q3/bin/../lib/gcc/arm-none-eabi/4.7.4/armv7-m/libgcc.a(bpabi.o)
__gnu_uldivmod_helper                             /Users/imac/Develop/stm32f4/arm_gcc/gcc-arm-none-eabi-4_7-2013q3/bin/../lib/gcc/arm-none-eabi/4.7.4/armv7-m/libgcc.a(bpabi.o)
                                                  /Users/imac/Develop/stm32f4/arm_gcc/gcc-arm-none-eabi-4_7-2013q3/bin/../lib/gcc/arm-none-eabi/4.7.4/armv7-m/libgcc.a(_aeabi_uldivmod.o)
__gtdf2                                           /Users/imac/Develop/stm32f4/arm_gcc/gcc-arm-none-eabi-4_7-2013q3/bin/../lib/gcc/arm-none-eabi/4.7.4/armv7-m/libgcc.a(_arm_cmpdf2.o)
__hexdig                                          /Users/imac/Develop/stm32f4/arm_gcc/gcc-arm-none-eabi-4_7-2013q3/bin/../lib/gcc/arm-none-eabi/4.7.4/../../../../arm-none-eabi/lib/armv7-m/libc.a(lib_a-gdtoa-hexnan.o)
                                                  /Users/imac/Develop/stm32f4/arm_gcc/gcc-arm-none-eabi-4_7-2013q3/bin/../lib/gcc/arm-none-eabi/4.7.4/../../../../arm-none-eabi/lib/armv7-m/libc.a(lib_a-gdtoa-gethex.o)
__hexdig_init                                     /Users/imac/Develop/stm32f4/arm_gcc/gcc-arm-none-eabi-4_7-2013q3/bin/../lib/gcc/arm-none-eabi/4.7.4/../../../../arm-none-eabi/lib/armv7-m/libc.a(lib_a-gdtoa-gethex.o)
                                                  /Users/imac/Develop/stm32f4/arm_gcc/gcc-arm-none-eabi-4_7-2013q3/bin/../lib/gcc/arm-none-eabi/4.7.4/../../../../arm-none-eabi/lib/armv7-m/libc.a(lib_a-gdtoa-hexnan.o)
__hexnan                                          /Users/imac/Develop/stm32f4/arm_gcc/gcc-arm-none-eabi-4_7-2013q3/bin/../lib/gcc/arm-none-eabi/4.7.4/../../../../arm-none-eabi/lib/armv7-m/libc.a(lib_a-gdtoa-hexnan.o)
                                                  /Users/imac/Develop/stm32f4/arm_gcc/gcc-arm-none-eabi-4_7-2013q3/bin/../lib/gcc/arm-none-eabi/4.7.4/../../../../arm-none-eabi/lib/armv7-m/libc.a(lib_a-strtod.o)
__hi0bits                                         /Users/imac/Develop/stm32f4/arm_gcc/gcc-arm-none-eabi-4_7-2013q3/bin/../lib/gcc/arm-none-eabi/4.7.4/../../../../arm-none-eabi/lib/armv7-m/libc.a(lib_a-mprec.o)
                                                  /Users/imac/Develop/stm32f4/arm_gcc/gcc-arm-none-eabi-4_7-2013q3/bin/../lib/gcc/arm-none-eabi/4.7.4/../../../../arm-none-eabi/lib/armv7-m/libc.a(lib_a-gdtoa-gethex.o)
                                                  /Users/imac/Develop/stm32f4/arm_gcc/gcc-arm-none-eabi-4_7-2013q3/bin/../lib/gcc/arm-none-eabi/4.7.4/../../../../arm-none-eabi/lib/armv7-m/libc.a(lib_a-dtoa.o)
__i2b                                             /Users/imac/Develop/stm32f4/arm_gcc/gcc-arm-none-eabi-4_7-2013q3/bin/../lib/gcc/arm-none-eabi/4.7.4/../../../../arm-none-eabi/lib/armv7-m/libc.a(lib_a-mprec.o)
                                                  /Users/imac/Develop/stm32f4/arm_gcc/gcc-arm-none-eabi-4_7-2013q3/bin/../lib/gcc/arm-none-eabi/4.7.4/../../../../arm-none-eabi/lib/armv7-m/libc.a(lib_a-dtoa.o)
                                                  /Users/imac/Develop/stm32f4/arm_gcc/gcc-arm-none-eabi-4_7-2013q3/bin/../lib/gcc/arm-none-eabi/4.7.4/../../../../arm-none-eabi/lib/armv7-m/libc.a(lib_a-strtod.o)
__ledf2                                           /Users/imac/Develop/stm32f4/arm_gcc/gcc-arm-none-eabi-4_7-2013q3/bin/../lib/gcc/arm-none-eabi/4.7.4/armv7-m/libgcc.a(_arm_cmpdf2.o)
__lo0bits                                         /Users/imac/Develop/stm32f4/arm_gcc/gcc-arm-none-eabi-4_7-2013q3/bin/../lib/gcc/arm-none-eabi/4.7.4/../../../../arm-none-eabi/lib/armv7-m/libc.a(lib_a-mprec.o)
__locale_charset                                  /Users/imac/Develop/stm32f4/arm_gcc/gcc-arm-none-eabi-4_7-2013q3/bin/../lib/gcc/arm-none-eabi/4.7.4/../../../../arm-none-eabi/lib/armv7-m/libc.a(lib_a-locale.o)
                                                  /Users/imac/Develop/stm32f4/arm_gcc/gcc-arm-none-eabi-4_7-2013q3/bin/../lib/gcc/arm-none-eabi/4.7.4/../../../../arm-none-eabi/lib/armv7-m/libc.a(lib_a-mbtowc_r.o)
                                                  /Users/imac/Develop/stm32f4/arm_gcc/gcc-arm-none-eabi-4_7-2013q3/bin/../lib/gcc/arm-none-eabi/4.7.4/../../../../arm-none-eabi/lib/armv7-m/libc.a(lib_a-mbrtowc.o)
__locale_cjk_lang                                 /Users/imac/Develop/stm32f4/arm_gcc/gcc-arm-none-eabi-4_7-2013q3/bin/../lib/gcc/arm-none-eabi/4.7.4/../../../../arm-none-eabi/lib/armv7-m/libc.a(lib_a-locale.o)
__locale_mb_cur_max                               /Users/imac/Develop/stm32f4/arm_gcc/gcc-arm-none-eabi-4_7-2013q3/bin/../lib/gcc/arm-none-eabi/4.7.4/../../../../arm-none-eabi/lib/armv7-m/libc.a(lib_a-locale.o)
                                                  /Users/imac/Develop/stm32f4/arm_gcc/gcc-arm-none-eabi-4_7-2013q3/bin/../lib/gcc/arm-none-eabi/4.7.4/../../../../arm-none-eabi/lib/armv7-m/libc.a(lib_a-svfiscanf.o)
                                                  /Users/imac/Develop/stm32f4/arm_gcc/gcc-arm-none-eabi-4_7-2013q3/bin/../lib/gcc/arm-none-eabi/4.7.4/../../../../arm-none-eabi/lib/armv7-m/libc.a(lib_a-svfscanf.o)
__locale_msgcharset                               /Users/imac/Develop/stm32f4/arm_gcc/gcc-arm-none-eabi-4_7-2013q3/bin/../lib/gcc/arm-none-eabi/4.7.4/../../../../arm-none-eabi/lib/armv7-m/libc.a(lib_a-locale.o)
__lshift                                          /Users/imac/Develop/stm32f4/arm_gcc/gcc-arm-none-eabi-4_7-2013q3/bin/../lib/gcc/arm-none-eabi/4.7.4/../../../../arm-none-eabi/lib/armv7-m/libc.a(lib_a-mprec.o)
                                                  /Users/imac/Develop/stm32f4/arm_gcc/gcc-arm-none-eabi-4_7-2013q3/bin/../lib/gcc/arm-none-eabi/4.7.4/../../../../arm-none-eabi/lib/armv7-m/libc.a(lib_a-gdtoa-gethex.o)
                                                  /Users/imac/Develop/stm32f4/arm_gcc/gcc-arm-none-eabi-4_7-2013q3/bin/../lib/gcc/arm-none-eabi/4.7.4/../../../../arm-none-eabi/lib/armv7-m/libc.a(lib_a-dtoa.o)
                                                  /Users/imac/Develop/stm32f4/arm_gcc/gcc-arm-none-eabi-4_7-2013q3/bin/../lib/gcc/arm-none-eabi/4.7.4/../../../../arm-none-eabi/lib/armv7-m/libc.a(lib_a-strtod.o)
__ltdf2                                           /Users/imac/Develop/stm32f4/arm_gcc/gcc-arm-none-eabi-4_7-2013q3/bin/../lib/gcc/arm-none-eabi/4.7.4/armv7-m/libgcc.a(_arm_cmpdf2.o)
__malloc_av_                                      /Users/imac/Develop/stm32f4/arm_gcc/gcc-arm-none-eabi-4_7-2013q3/bin/../lib/gcc/arm-none-eabi/4.7.4/../../../../arm-none-eabi/lib/armv7-m/libc.a(lib_a-mallocr.o)
                                                  /Users/imac/Develop/stm32f4/arm_gcc/gcc-arm-none-eabi-4_7-2013q3/bin/../lib/gcc/arm-none-eabi/4.7.4/../../../../arm-none-eabi/lib/armv7-m/libc.a(lib_a-reallocr.o)
                                                  /Users/imac/Develop/stm32f4/arm_gcc/gcc-arm-none-eabi-4_7-2013q3/bin/../lib/gcc/arm-none-eabi/4.7.4/../../../../arm-none-eabi/lib/armv7-m/libc.a(lib_a-freer.o)
__malloc_current_mallinfo                         /Users/imac/Develop/stm32f4/arm_gcc/gcc-arm-none-eabi-4_7-2013q3/bin/../lib/gcc/arm-none-eabi/4.7.4/../../../../arm-none-eabi/lib/armv7-m/libc.a(lib_a-mallocr.o)
                                                  /Users/imac/Develop/stm32f4/arm_gcc/gcc-arm-none-eabi-4_7-2013q3/bin/../lib/gcc/arm-none-eabi/4.7.4/../../../../arm-none-eabi/lib/armv7-m/libc.a(lib_a-freer.o)
__malloc_lock                                     /Users/imac/Develop/stm32f4/arm_gcc/gcc-arm-none-eabi-4_7-2013q3/bin/../lib/gcc/arm-none-eabi/4.7.4/../../../../arm-none-eabi/lib/armv7-m/libc.a(lib_a-mlock.o)
                                                  /Users/imac/Develop/stm32f4/arm_gcc/gcc-arm-none-eabi-4_7-2013q3/bin/../lib/gcc/arm-none-eabi/4.7.4/../../../../arm-none-eabi/lib/armv7-m/libc.a(lib_a-reallocr.o)
                                                  /Users/imac/Develop/stm32f4/arm_gcc/gcc-arm-none-eabi-4_7-2013q3/bin/../lib/gcc/arm-none-eabi/4.7.4/../../../../arm-none-eabi/lib/armv7-m/libc.a(lib_a-freer.o)
                                                  /Users/imac/Develop/stm32f4/arm_gcc/gcc-arm-none-eabi-4_7-2013q3/bin/../lib/gcc/arm-none-eabi/4.7.4/../../../../arm-none-eabi/lib/armv7-m/libc.a(lib_a-mallocr.o)
__malloc_max_sbrked_mem                           /Users/imac/Develop/stm32f4/arm_gcc/gcc-arm-none-eabi-4_7-2013q3/bin/../lib/gcc/arm-none-eabi/4.7.4/../../../../arm-none-eabi/lib/armv7-m/libc.a(lib_a-mallocr.o)
__malloc_max_total_mem                            /Users/imac/Develop/stm32f4/arm_gcc/gcc-arm-none-eabi-4_7-2013q3/bin/../lib/gcc/arm-none-eabi/4.7.4/../../../../arm-none-eabi/lib/armv7-m/libc.a(lib_a-mallocr.o)
__malloc_sbrk_base                                /Users/imac/Develop/stm32f4/arm_gcc/gcc-arm-none-eabi-4_7-2013q3/bin/../lib/gcc/arm-none-eabi/4.7.4/../../../../arm-none-eabi/lib/armv7-m/libc.a(lib_a-mallocr.o)
                                                  /Users/imac/Develop/stm32f4/arm_gcc/gcc-arm-none-eabi-4_7-2013q3/bin/../lib/gcc/arm-none-eabi/4.7.4/../../../../arm-none-eabi/lib/armv7-m/libc.a(lib_a-freer.o)
__malloc_top_pad                                  /Users/imac/Develop/stm32f4/arm_gcc/gcc-arm-none-eabi-4_7-2013q3/bin/../lib/gcc/arm-none-eabi/4.7.4/../../../../arm-none-eabi/lib/armv7-m/libc.a(lib_a-mallocr.o)
                                                  /Users/imac/Develop/stm32f4/arm_gcc/gcc-arm-none-eabi-4_7-2013q3/bin/../lib/gcc/arm-none-eabi/4.7.4/../../../../arm-none-eabi/lib/armv7-m/libc.a(lib_a-freer.o)
__malloc_trim_threshold                           /Users/imac/Develop/stm32f4/arm_gcc/gcc-arm-none-eabi-4_7-2013q3/bin/../lib/gcc/arm-none-eabi/4.7.4/../../../../arm-none-eabi/lib/armv7-m/libc.a(lib_a-mallocr.o)
                                                  /Users/imac/Develop/stm32f4/arm_gcc/gcc-arm-none-eabi-4_7-2013q3/bin/../lib/gcc/arm-none-eabi/4.7.4/../../../../arm-none-eabi/lib/armv7-m/libc.a(lib_a-freer.o)
__malloc_unlock                                   /Users/imac/Develop/stm32f4/arm_gcc/gcc-arm-none-eabi-4_7-2013q3/bin/../lib/gcc/arm-none-eabi/4.7.4/../../../../arm-none-eabi/lib/armv7-m/libc.a(lib_a-mlock.o)
                                                  /Users/imac/Develop/stm32f4/arm_gcc/gcc-arm-none-eabi-4_7-2013q3/bin/../lib/gcc/arm-none-eabi/4.7.4/../../../../arm-none-eabi/lib/armv7-m/libc.a(lib_a-reallocr.o)
                                                  /Users/imac/Develop/stm32f4/arm_gcc/gcc-arm-none-eabi-4_7-2013q3/bin/../lib/gcc/arm-none-eabi/4.7.4/../../../../arm-none-eabi/lib/armv7-m/libc.a(lib_a-freer.o)
                                                  /Users/imac/Develop/stm32f4/arm_gcc/gcc-arm-none-eabi-4_7-2013q3/bin/../lib/gcc/arm-none-eabi/4.7.4/../../../../arm-none-eabi/lib/armv7-m/libc.a(lib_a-mallocr.o)
__mb_cur_max                                      /Users/imac/Develop/stm32f4/arm_gcc/gcc-arm-none-eabi-4_7-2013q3/bin/../lib/gcc/arm-none-eabi/4.7.4/../../../../arm-none-eabi/lib/armv7-m/libc.a(lib_a-locale.o)
__mbtowc                                          /Users/imac/Develop/stm32f4/arm_gcc/gcc-arm-none-eabi-4_7-2013q3/bin/../lib/gcc/arm-none-eabi/4.7.4/../../../../arm-none-eabi/lib/armv7-m/libc.a(lib_a-mbtowc_r.o)
                                                  /Users/imac/Develop/stm32f4/arm_gcc/gcc-arm-none-eabi-4_7-2013q3/bin/../lib/gcc/arm-none-eabi/4.7.4/../../../../arm-none-eabi/lib/armv7-m/libc.a(lib_a-mbrtowc.o)
__mcmp                                            /Users/imac/Develop/stm32f4/arm_gcc/gcc-arm-none-eabi-4_7-2013q3/bin/../lib/gcc/arm-none-eabi/4.7.4/../../../../arm-none-eabi/lib/armv7-m/libc.a(lib_a-mprec.o)
                                                  /Users/imac/Develop/stm32f4/arm_gcc/gcc-arm-none-eabi-4_7-2013q3/bin/../lib/gcc/arm-none-eabi/4.7.4/../../../../arm-none-eabi/lib/armv7-m/libc.a(lib_a-dtoa.o)
                                                  /Users/imac/Develop/stm32f4/arm_gcc/gcc-arm-none-eabi-4_7-2013q3/bin/../lib/gcc/arm-none-eabi/4.7.4/../../../../arm-none-eabi/lib/armv7-m/libc.a(lib_a-strtod.o)
__mdiff                                           /Users/imac/Develop/stm32f4/arm_gcc/gcc-arm-none-eabi-4_7-2013q3/bin/../lib/gcc/arm-none-eabi/4.7.4/../../../../arm-none-eabi/lib/armv7-m/libc.a(lib_a-mprec.o)
                                                  /Users/imac/Develop/stm32f4/arm_gcc/gcc-arm-none-eabi-4_7-2013q3/bin/../lib/gcc/arm-none-eabi/4.7.4/../../../../arm-none-eabi/lib/armv7-m/libc.a(lib_a-dtoa.o)
                                                  /Users/imac/Develop/stm32f4/arm_gcc/gcc-arm-none-eabi-4_7-2013q3/bin/../lib/gcc/arm-none-eabi/4.7.4/../../../../arm-none-eabi/lib/armv7-m/libc.a(lib_a-strtod.o)
__mlocale_changed                                 /Users/imac/Develop/stm32f4/arm_gcc/gcc-arm-none-eabi-4_7-2013q3/bin/../lib/gcc/arm-none-eabi/4.7.4/../../../../arm-none-eabi/lib/armv7-m/libc.a(lib_a-locale.o)
__mprec_bigtens                                   /Users/imac/Develop/stm32f4/arm_gcc/gcc-arm-none-eabi-4_7-2013q3/bin/../lib/gcc/arm-none-eabi/4.7.4/../../../../arm-none-eabi/lib/armv7-m/libc.a(lib_a-mprec.o)
                                                  /Users/imac/Develop/stm32f4/arm_gcc/gcc-arm-none-eabi-4_7-2013q3/bin/../lib/gcc/arm-none-eabi/4.7.4/../../../../arm-none-eabi/lib/armv7-m/libc.a(lib_a-dtoa.o)
                                                  /Users/imac/Develop/stm32f4/arm_gcc/gcc-arm-none-eabi-4_7-2013q3/bin/../lib/gcc/arm-none-eabi/4.7.4/../../../../arm-none-eabi/lib/armv7-m/libc.a(lib_a-strtod.o)
__mprec_tens                                      /Users/imac/Develop/stm32f4/arm_gcc/gcc-arm-none-eabi-4_7-2013q3/bin/../lib/gcc/arm-none-eabi/4.7.4/../../../../arm-none-eabi/lib/armv7-m/libc.a(lib_a-mprec.o)
                                                  /Users/imac/Develop/stm32f4/arm_gcc/gcc-arm-none-eabi-4_7-2013q3/bin/../lib/gcc/arm-none-eabi/4.7.4/../../../../arm-none-eabi/lib/armv7-m/libc.a(lib_a-dtoa.o)
                                                  /Users/imac/Develop/stm32f4/arm_gcc/gcc-arm-none-eabi-4_7-2013q3/bin/../lib/gcc/arm-none-eabi/4.7.4/../../../../arm-none-eabi/lib/armv7-m/libc.a(lib_a-strtod.o)
__mprec_tinytens                                  /Users/imac/Develop/stm32f4/arm_gcc/gcc-arm-none-eabi-4_7-2013q3/bin/../lib/gcc/arm-none-eabi/4.7.4/../../../../arm-none-eabi/lib/armv7-m/libc.a(lib_a-mprec.o)
__muldf3                                          /Users/imac/Develop/stm32f4/arm_gcc/gcc-arm-none-eabi-4_7-2013q3/bin/../lib/gcc/arm-none-eabi/4.7.4/armv7-m/libgcc.a(_arm_muldivdf3.o)
__multadd                                         /Users/imac/Develop/stm32f4/arm_gcc/gcc-arm-none-eabi-4_7-2013q3/bin/../lib/gcc/arm-none-eabi/4.7.4/../../../../arm-none-eabi/lib/armv7-m/libc.a(lib_a-mprec.o)
                                                  /Users/imac/Develop/stm32f4/arm_gcc/gcc-arm-none-eabi-4_7-2013q3/bin/../lib/gcc/arm-none-eabi/4.7.4/../../../../arm-none-eabi/lib/armv7-m/libc.a(lib_a-dtoa.o)
__multiply                                        /Users/imac/Develop/stm32f4/arm_gcc/gcc-arm-none-eabi-4_7-2013q3/bin/../lib/gcc/arm-none-eabi/4.7.4/../../../../arm-none-eabi/lib/armv7-m/libc.a(lib_a-mprec.o)
                                                  /Users/imac/Develop/stm32f4/arm_gcc/gcc-arm-none-eabi-4_7-2013q3/bin/../lib/gcc/arm-none-eabi/4.7.4/../../../../arm-none-eabi/lib/armv7-m/libc.a(lib_a-dtoa.o)
                                                  /Users/imac/Develop/stm32f4/arm_gcc/gcc-arm-none-eabi-4_7-2013q3/bin/../lib/gcc/arm-none-eabi/4.7.4/../../../../arm-none-eabi/lib/armv7-m/libc.a(lib_a-strtod.o)
__nedf2                                           /Users/imac/Develop/stm32f4/arm_gcc/gcc-arm-none-eabi-4_7-2013q3/bin/../lib/gcc/arm-none-eabi/4.7.4/armv7-m/libgcc.a(_arm_cmpdf2.o)
__nlocale_changed                                 /Users/imac/Develop/stm32f4/arm_gcc/gcc-arm-none-eabi-4_7-2013q3/bin/../lib/gcc/arm-none-eabi/4.7.4/../../../../arm-none-eabi/lib/armv7-m/libc.a(lib_a-locale.o)
__pow5mult                                        /Users/imac/Develop/stm32f4/arm_gcc/gcc-arm-none-eabi-4_7-2013q3/bin/../lib/gcc/arm-none-eabi/4.7.4/../../../../arm-none-eabi/lib/armv7-m/libc.a(lib_a-mprec.o)
                                                  /Users/imac/Develop/stm32f4/arm_gcc/gcc-arm-none-eabi-4_7-2013q3/bin/../lib/gcc/arm-none-eabi/4.7.4/../../../../arm-none-eabi/lib/armv7-m/libc.a(lib_a-dtoa.o)
                                                  /Users/imac/Develop/stm32f4/arm_gcc/gcc-arm-none-eabi-4_7-2013q3/bin/../lib/gcc/arm-none-eabi/4.7.4/../../../../arm-none-eabi/lib/armv7-m/libc.a(lib_a-strtod.o)
__ratio                                           /Users/imac/Develop/stm32f4/arm_gcc/gcc-arm-none-eabi-4_7-2013q3/bin/../lib/gcc/arm-none-eabi/4.7.4/../../../../arm-none-eabi/lib/armv7-m/libc.a(lib_a-mprec.o)
                                                  /Users/imac/Develop/stm32f4/arm_gcc/gcc-arm-none-eabi-4_7-2013q3/bin/../lib/gcc/arm-none-eabi/4.7.4/../../../../arm-none-eabi/lib/armv7-m/libc.a(lib_a-strtod.o)
__s2b                                             /Users/imac/Develop/stm32f4/arm_gcc/gcc-arm-none-eabi-4_7-2013q3/bin/../lib/gcc/arm-none-eabi/4.7.4/../../../../arm-none-eabi/lib/armv7-m/libc.a(lib_a-mprec.o)
                                                  /Users/imac/Develop/stm32f4/arm_gcc/gcc-arm-none-eabi-4_7-2013q3/bin/../lib/gcc/arm-none-eabi/4.7.4/../../../../arm-none-eabi/lib/armv7-m/libc.a(lib_a-strtod.o)
__sccl                                            /Users/imac/Develop/stm32f4/arm_gcc/gcc-arm-none-eabi-4_7-2013q3/bin/../lib/gcc/arm-none-eabi/4.7.4/../../../../arm-none-eabi/lib/armv7-m/libc.a(lib_a-sccl.o)
                                                  /Users/imac/Develop/stm32f4/arm_gcc/gcc-arm-none-eabi-4_7-2013q3/bin/../lib/gcc/arm-none-eabi/4.7.4/../../../../arm-none-eabi/lib/armv7-m/libc.a(lib_a-svfiscanf.o)
                                                  /Users/imac/Develop/stm32f4/arm_gcc/gcc-arm-none-eabi-4_7-2013q3/bin/../lib/gcc/arm-none-eabi/4.7.4/../../../../arm-none-eabi/lib/armv7-m/libc.a(lib_a-svfscanf.o)
__sclose                                          /Users/imac/Develop/stm32f4/arm_gcc/gcc-arm-none-eabi-4_7-2013q3/bin/../lib/gcc/arm-none-eabi/4.7.4/../../../../arm-none-eabi/lib/armv7-m/libc.a(lib_a-stdio.o)
                                                  /Users/imac/Develop/stm32f4/arm_gcc/gcc-arm-none-eabi-4_7-2013q3/bin/../lib/gcc/arm-none-eabi/4.7.4/../../../../arm-none-eabi/lib/armv7-m/libc.a(lib_a-findfp.o)
__seofread                                        /Users/imac/Develop/stm32f4/arm_gcc/gcc-arm-none-eabi-4_7-2013q3/bin/../lib/gcc/arm-none-eabi/4.7.4/../../../../arm-none-eabi/lib/armv7-m/libc.a(lib_a-stdio.o)
                                                  /Users/imac/Develop/stm32f4/arm_gcc/gcc-arm-none-eabi-4_7-2013q3/bin/../lib/gcc/arm-none-eabi/4.7.4/../../../../arm-none-eabi/lib/armv7-m/libc.a(lib_a-sscanf.o)
__sfmoreglue                                      /Users/imac/Develop/stm32f4/arm_gcc/gcc-arm-none-eabi-4_7-2013q3/bin/../lib/gcc/arm-none-eabi/4.7.4/../../../../arm-none-eabi/lib/armv7-m/libc.a(lib_a-findfp.o)
__sfp                                             /Users/imac/Develop/stm32f4/arm_gcc/gcc-arm-none-eabi-4_7-2013q3/bin/../lib/gcc/arm-none-eabi/4.7.4/../../../../arm-none-eabi/lib/armv7-m/libc.a(lib_a-findfp.o)
__sfp_lock_acquire                                /Users/imac/Develop/stm32f4/arm_gcc/gcc-arm-none-eabi-4_7-2013q3/bin/../lib/gcc/arm-none-eabi/4.7.4/../../../../arm-none-eabi/lib/armv7-m/libc.a(lib_a-findfp.o)
                                                  /Users/imac/Develop/stm32f4/arm_gcc/gcc-arm-none-eabi-4_7-2013q3/bin/../lib/gcc/arm-none-eabi/4.7.4/../../../../arm-none-eabi/lib/armv7-m/libc.a(lib_a-fclose.o)
                                                  /Users/imac/Develop/stm32f4/arm_gcc/gcc-arm-none-eabi-4_7-2013q3/bin/../lib/gcc/arm-none-eabi/4.7.4/../../../../arm-none-eabi/lib/armv7-m/libc.a(lib_a-svfiscanf.o)
                                                  /Users/imac/Develop/stm32f4/arm_gcc/gcc-arm-none-eabi-4_7-2013q3/bin/../lib/gcc/arm-none-eabi/4.7.4/../../../../arm-none-eabi/lib/armv7-m/libc.a(lib_a-fwalk.o)
                                                  /Users/imac/Develop/stm32f4/arm_gcc/gcc-arm-none-eabi-4_7-2013q3/bin/../lib/gcc/arm-none-eabi/4.7.4/../../../../arm-none-eabi/lib/armv7-m/libc.a(lib_a-svfscanf.o)
__sfp_lock_release                                /Users/imac/Develop/stm32f4/arm_gcc/gcc-arm-none-eabi-4_7-2013q3/bin/../lib/gcc/arm-none-eabi/4.7.4/../../../../arm-none-eabi/lib/armv7-m/libc.a(lib_a-findfp.o)
                                                  /Users/imac/Develop/stm32f4/arm_gcc/gcc-arm-none-eabi-4_7-2013q3/bin/../lib/gcc/arm-none-eabi/4.7.4/../../../../arm-none-eabi/lib/armv7-m/libc.a(lib_a-fclose.o)
                                                  /Users/imac/Develop/stm32f4/arm_gcc/gcc-arm-none-eabi-4_7-2013q3/bin/../lib/gcc/arm-none-eabi/4.7.4/../../../../arm-none-eabi/lib/armv7-m/libc.a(lib_a-svfiscanf.o)
                                                  /Users/imac/Develop/stm32f4/arm_gcc/gcc-arm-none-eabi-4_7-2013q3/bin/../lib/gcc/arm-none-eabi/4.7.4/../../../../arm-none-eabi/lib/armv7-m/libc.a(lib_a-fwalk.o)
                                                  /Users/imac/Develop/stm32f4/arm_gcc/gcc-arm-none-eabi-4_7-2013q3/bin/../lib/gcc/arm-none-eabi/4.7.4/../../../../arm-none-eabi/lib/armv7-m/libc.a(lib_a-svfscanf.o)
__sinit                                           /Users/imac/Develop/stm32f4/arm_gcc/gcc-arm-none-eabi-4_7-2013q3/bin/../lib/gcc/arm-none-eabi/4.7.4/../../../../arm-none-eabi/lib/armv7-m/libc.a(lib_a-findfp.o)
                                                  /Users/imac/Develop/stm32f4/arm_gcc/gcc-arm-none-eabi-4_7-2013q3/bin/../lib/gcc/arm-none-eabi/4.7.4/../../../../arm-none-eabi/lib/armv7-m/libc.a(lib_a-fflush.o)
                                                  /Users/imac/Develop/stm32f4/arm_gcc/gcc-arm-none-eabi-4_7-2013q3/bin/../lib/gcc/arm-none-eabi/4.7.4/../../../../arm-none-eabi/lib/armv7-m/libc.a(lib_a-fclose.o)
                                                  /Users/imac/Develop/stm32f4/arm_gcc/gcc-arm-none-eabi-4_7-2013q3/bin/../lib/gcc/arm-none-eabi/4.7.4/../../../../arm-none-eabi/lib/armv7-m/libc.a(lib_a-ungetc.o)
__sinit_lock_acquire                              /Users/imac/Develop/stm32f4/arm_gcc/gcc-arm-none-eabi-4_7-2013q3/bin/../lib/gcc/arm-none-eabi/4.7.4/../../../../arm-none-eabi/lib/armv7-m/libc.a(lib_a-findfp.o)
__sinit_lock_release                              /Users/imac/Develop/stm32f4/arm_gcc/gcc-arm-none-eabi-4_7-2013q3/bin/../lib/gcc/arm-none-eabi/4.7.4/../../../../arm-none-eabi/lib/armv7-m/libc.a(lib_a-findfp.o)
__sread                                           /Users/imac/Develop/stm32f4/arm_gcc/gcc-arm-none-eabi-4_7-2013q3/bin/../lib/gcc/arm-none-eabi/4.7.4/../../../../arm-none-eabi/lib/armv7-m/libc.a(lib_a-stdio.o)
                                                  /Users/imac/Develop/stm32f4/arm_gcc/gcc-arm-none-eabi-4_7-2013q3/bin/../lib/gcc/arm-none-eabi/4.7.4/../../../../arm-none-eabi/lib/armv7-m/libc.a(lib_a-findfp.o)
__sseek                                           /Users/imac/Develop/stm32f4/arm_gcc/gcc-arm-none-eabi-4_7-2013q3/bin/../lib/gcc/arm-none-eabi/4.7.4/../../../../arm-none-eabi/lib/armv7-m/libc.a(lib_a-stdio.o)
                                                  /Users/imac/Develop/stm32f4/arm_gcc/gcc-arm-none-eabi-4_7-2013q3/bin/../lib/gcc/arm-none-eabi/4.7.4/../../../../arm-none-eabi/lib/armv7-m/libc.a(lib_a-findfp.o)
__ssprint_r                                       /Users/imac/Develop/stm32f4/arm_gcc/gcc-arm-none-eabi-4_7-2013q3/bin/../lib/gcc/arm-none-eabi/4.7.4/../../../../arm-none-eabi/lib/armv7-m/libc.a(lib_a-svfiprintf.o)
                                                  /Users/imac/Develop/stm32f4/arm_gcc/gcc-arm-none-eabi-4_7-2013q3/bin/../lib/gcc/arm-none-eabi/4.7.4/../../../../arm-none-eabi/lib/armv7-m/libc.a(lib_a-svfprintf.o)
__ssrefill_r                                      /Users/imac/Develop/stm32f4/arm_gcc/gcc-arm-none-eabi-4_7-2013q3/bin/../lib/gcc/arm-none-eabi/4.7.4/../../../../arm-none-eabi/lib/armv7-m/libc.a(lib_a-svfiscanf.o)
                                                  /Users/imac/Develop/stm32f4/arm_gcc/gcc-arm-none-eabi-4_7-2013q3/bin/../lib/gcc/arm-none-eabi/4.7.4/../../../../arm-none-eabi/lib/armv7-m/libc.a(lib_a-svfscanf.o)
__ssvfiscanf_r                                    /Users/imac/Develop/stm32f4/arm_gcc/gcc-arm-none-eabi-4_7-2013q3/bin/../lib/gcc/arm-none-eabi/4.7.4/../../../../arm-none-eabi/lib/armv7-m/libc.a(lib_a-svfiscanf.o)
__ssvfscanf_r                                     /Users/imac/Develop/stm32f4/arm_gcc/gcc-arm-none-eabi-4_7-2013q3/bin/../lib/gcc/arm-none-eabi/4.7.4/../../../../arm-none-eabi/lib/armv7-m/libc.a(lib_a-svfscanf.o)
                                                  /Users/imac/Develop/stm32f4/arm_gcc/gcc-arm-none-eabi-4_7-2013q3/bin/../lib/gcc/arm-none-eabi/4.7.4/../../../../arm-none-eabi/lib/armv7-m/libc.a(lib_a-sscanf.o)
__strtok_r                                        /Users/imac/Develop/stm32f4/arm_gcc/gcc-arm-none-eabi-4_7-2013q3/bin/../lib/gcc/arm-none-eabi/4.7.4/../../../../arm-none-eabi/lib/armv7-m/libc.a(lib_a-strtok_r.o)
                                                  /Users/imac/Develop/stm32f4/arm_gcc/gcc-arm-none-eabi-4_7-2013q3/bin/../lib/gcc/arm-none-eabi/4.7.4/../../../../arm-none-eabi/lib/armv7-m/libc.a(lib_a-strtok.o)
__subdf3                                          /Users/imac/Develop/stm32f4/arm_gcc/gcc-arm-none-eabi-4_7-2013q3/bin/../lib/gcc/arm-none-eabi/4.7.4/armv7-m/libgcc.a(_arm_addsubdf3.o)
__submore                                         /Users/imac/Develop/stm32f4/arm_gcc/gcc-arm-none-eabi-4_7-2013q3/bin/../lib/gcc/arm-none-eabi/4.7.4/../../../../arm-none-eabi/lib/armv7-m/libc.a(lib_a-ungetc.o)
                                                  /Users/imac/Develop/stm32f4/arm_gcc/gcc-arm-none-eabi-4_7-2013q3/bin/../lib/gcc/arm-none-eabi/4.7.4/../../../../arm-none-eabi/lib/armv7-m/libc.a(lib_a-svfiscanf.o)
__swrite                                          /Users/imac/Develop/stm32f4/arm_gcc/gcc-arm-none-eabi-4_7-2013q3/bin/../lib/gcc/arm-none-eabi/4.7.4/../../../../arm-none-eabi/lib/armv7-m/libc.a(lib_a-stdio.o)
                                                  /Users/imac/Develop/stm32f4/arm_gcc/gcc-arm-none-eabi-4_7-2013q3/bin/../lib/gcc/arm-none-eabi/4.7.4/../../../../arm-none-eabi/lib/armv7-m/libc.a(lib_a-findfp.o)
__truncdfsf2                                      /Users/imac/Develop/stm32f4/arm_gcc/gcc-arm-none-eabi-4_7-2013q3/bin/../lib/gcc/arm-none-eabi/4.7.4/armv7-m/libgcc.a(_arm_truncdfsf2.o)
__udivdi3                                         /Users/imac/Develop/stm32f4/arm_gcc/gcc-arm-none-eabi-4_7-2013q3/bin/../lib/gcc/arm-none-eabi/4.7.4/armv7-m/libgcc.a(_udivdi3.o)
                                                  /Users/imac/Develop/stm32f4/arm_gcc/gcc-arm-none-eabi-4_7-2013q3/bin/../lib/gcc/arm-none-eabi/4.7.4/armv7-m/libgcc.a(bpabi.o)
__ulp                                             /Users/imac/Develop/stm32f4/arm_gcc/gcc-arm-none-eabi-4_7-2013q3/bin/../lib/gcc/arm-none-eabi/4.7.4/../../../../arm-none-eabi/lib/armv7-m/libc.a(lib_a-mprec.o)
                                                  /Users/imac/Develop/stm32f4/arm_gcc/gcc-arm-none-eabi-4_7-2013q3/bin/../lib/gcc/arm-none-eabi/4.7.4/../../../../arm-none-eabi/lib/armv7-m/libc.a(lib_a-strtod.o)
_calloc_r                                         /Users/imac/Develop/stm32f4/arm_gcc/gcc-arm-none-eabi-4_7-2013q3/bin/../lib/gcc/arm-none-eabi/4.7.4/../../../../arm-none-eabi/lib/armv7-m/libc.a(lib_a-callocr.o)
                                                  /Users/imac/Develop/stm32f4/arm_gcc/gcc-arm-none-eabi-4_7-2013q3/bin/../lib/gcc/arm-none-eabi/4.7.4/../../../../arm-none-eabi/lib/armv7-m/libc.a(lib_a-mprec.o)
_cleanup                                          /Users/imac/Develop/stm32f4/arm_gcc/gcc-arm-none-eabi-4_7-2013q3/bin/../lib/gcc/arm-none-eabi/4.7.4/../../../../arm-none-eabi/lib/armv7-m/libc.a(lib_a-findfp.o)
_cleanup_r                                        /Users/imac/Develop/stm32f4/arm_gcc/gcc-arm-none-eabi-4_7-2013q3/bin/../lib/gcc/arm-none-eabi/4.7.4/../../../../arm-none-eabi/lib/armv7-m/libc.a(lib_a-findfp.o)
_close                                            /Users/imac/Develop/stm32f4/arm_gcc/gcc-arm-none-eabi-4_7-2013q3/bin/../lib/gcc/arm-none-eabi/4.7.4/../../../../arm-none-eabi/lib/armv7-m/libc.a(lib_a-closer.o)
_close_r                                          /Users/imac/Develop/stm32f4/arm_gcc/gcc-arm-none-eabi-4_7-2013q3/bin/../lib/gcc/arm-none-eabi/4.7.4/../../../../arm-none-eabi/lib/armv7-m/libc.a(lib_a-closer.o)
                                                  /Users/imac/Develop/stm32f4/arm_gcc/gcc-arm-none-eabi-4_7-2013q3/bin/../lib/gcc/arm-none-eabi/4.7.4/../../../../arm-none-eabi/lib/armv7-m/libc.a(lib_a-stdio.o)
_ctype_                                           /Users/imac/Develop/stm32f4/arm_gcc/gcc-arm-none-eabi-4_7-2013q3/bin/../lib/gcc/arm-none-eabi/4.7.4/../../../../arm-none-eabi/lib/armv7-m/libc.a(lib_a-ctype_.o)
_dtoa_r                                           /Users/imac/Develop/stm32f4/arm_gcc/gcc-arm-none-eabi-4_7-2013q3/bin/../lib/gcc/arm-none-eabi/4.7.4/../../../../arm-none-eabi/lib/armv7-m/libc.a(lib_a-dtoa.o)
                                                  /Users/imac/Develop/stm32f4/arm_gcc/gcc-arm-none-eabi-4_7-2013q3/bin/../lib/gcc/arm-none-eabi/4.7.4/../../../../arm-none-eabi/lib/armv7-m/libc.a(lib_a-svfprintf.o)
_ebss                                             Hw_StartUp.o
                                                  Lb_Util.o
_edata                                            Hw_StartUp.o
_estack                                           Hw_StartUp.o
_fclose_r                                         /Users/imac/Develop/stm32f4/arm_gcc/gcc-arm-none-eabi-4_7-2013q3/bin/../lib/gcc/arm-none-eabi/4.7.4/../../../../arm-none-eabi/lib/armv7-m/libc.a(lib_a-fclose.o)
_fflush_r                                         /Users/imac/Develop/stm32f4/arm_gcc/gcc-arm-none-eabi-4_7-2013q3/bin/../lib/gcc/arm-none-eabi/4.7.4/../../../../arm-none-eabi/lib/armv7-m/libc.a(lib_a-fflush.o)
                                                  /Users/imac/Develop/stm32f4/arm_gcc/gcc-arm-none-eabi-4_7-2013q3/bin/../lib/gcc/arm-none-eabi/4.7.4/../../../../arm-none-eabi/lib/armv7-m/libc.a(lib_a-fclose.o)
                                                  /Users/imac/Develop/stm32f4/arm_gcc/gcc-arm-none-eabi-4_7-2013q3/bin/../lib/gcc/arm-none-eabi/4.7.4/../../../../arm-none-eabi/lib/armv7-m/libc.a(lib_a-ungetc.o)
_free_r                                           /Users/imac/Develop/stm32f4/arm_gcc/gcc-arm-none-eabi-4_7-2013q3/bin/../lib/gcc/arm-none-eabi/4.7.4/../../../../arm-none-eabi/lib/armv7-m/libc.a(lib_a-freer.o)
                                                  /Users/imac/Develop/stm32f4/arm_gcc/gcc-arm-none-eabi-4_7-2013q3/bin/../lib/gcc/arm-none-eabi/4.7.4/../../../../arm-none-eabi/lib/armv7-m/libc.a(lib_a-svfiprintf.o)
                                                  /Users/imac/Develop/stm32f4/arm_gcc/gcc-arm-none-eabi-4_7-2013q3/bin/../lib/gcc/arm-none-eabi/4.7.4/../../../../arm-none-eabi/lib/armv7-m/libc.a(lib_a-reallocr.o)
                                                  /Users/imac/Develop/stm32f4/arm_gcc/gcc-arm-none-eabi-4_7-2013q3/bin/../lib/gcc/arm-none-eabi/4.7.4/../../../../arm-none-eabi/lib/armv7-m/libc.a(lib_a-fflush.o)
                                                  /Users/imac/Develop/stm32f4/arm_gcc/gcc-arm-none-eabi-4_7-2013q3/bin/../lib/gcc/arm-none-eabi/4.7.4/../../../../arm-none-eabi/lib/armv7-m/libc.a(lib_a-fclose.o)
                                                  /Users/imac/Develop/stm32f4/arm_gcc/gcc-arm-none-eabi-4_7-2013q3/bin/../lib/gcc/arm-none-eabi/4.7.4/../../../../arm-none-eabi/lib/armv7-m/libc.a(lib_a-svfiscanf.o)
                                                  /Users/imac/Develop/stm32f4/arm_gcc/gcc-arm-none-eabi-4_7-2013q3/bin/../lib/gcc/arm-none-eabi/4.7.4/../../../../arm-none-eabi/lib/armv7-m/libc.a(lib_a-reent.o)
                                                  /Users/imac/Develop/stm32f4/arm_gcc/gcc-arm-none-eabi-4_7-2013q3/bin/../lib/gcc/arm-none-eabi/4.7.4/../../../../arm-none-eabi/lib/armv7-m/libc.a(lib_a-mallocr.o)
_fwalk                                            /Users/imac/Develop/stm32f4/arm_gcc/gcc-arm-none-eabi-4_7-2013q3/bin/../lib/gcc/arm-none-eabi/4.7.4/../../../../arm-none-eabi/lib/armv7-m/libc.a(lib_a-fwalk.o)
                                                  /Users/imac/Develop/stm32f4/arm_gcc/gcc-arm-none-eabi-4_7-2013q3/bin/../lib/gcc/arm-none-eabi/4.7.4/../../../../arm-none-eabi/lib/armv7-m/libc.a(lib_a-findfp.o)
_fwalk_reent                                      /Users/imac/Develop/stm32f4/arm_gcc/gcc-arm-none-eabi-4_7-2013q3/bin/../lib/gcc/arm-none-eabi/4.7.4/../../../../arm-none-eabi/lib/armv7-m/libc.a(lib_a-fwalk.o)
                                                  /Users/imac/Develop/stm32f4/arm_gcc/gcc-arm-none-eabi-4_7-2013q3/bin/../lib/gcc/arm-none-eabi/4.7.4/../../../../arm-none-eabi/lib/armv7-m/libc.a(lib_a-fflush.o)
_global_impure_ptr                                /Users/imac/Develop/stm32f4/arm_gcc/gcc-arm-none-eabi-4_7-2013q3/bin/../lib/gcc/arm-none-eabi/4.7.4/../../../../arm-none-eabi/lib/armv7-m/libc.a(lib_a-impure.o)
                                                  /Users/imac/Develop/stm32f4/arm_gcc/gcc-arm-none-eabi-4_7-2013q3/bin/../lib/gcc/arm-none-eabi/4.7.4/../../../../arm-none-eabi/lib/armv7-m/libc.a(lib_a-fflush.o)
                                                  /Users/imac/Develop/stm32f4/arm_gcc/gcc-arm-none-eabi-4_7-2013q3/bin/../lib/gcc/arm-none-eabi/4.7.4/../../../../arm-none-eabi/lib/armv7-m/libc.a(lib_a-findfp.o)
_impure_ptr                                       /Users/imac/Develop/stm32f4/arm_gcc/gcc-arm-none-eabi-4_7-2013q3/bin/../lib/gcc/arm-none-eabi/4.7.4/../../../../arm-none-eabi/lib/armv7-m/libc.a(lib_a-impure.o)
                                                  /Users/imac/Develop/stm32f4/arm_gcc/gcc-arm-none-eabi-4_7-2013q3/bin/../lib/gcc/arm-none-eabi/4.7.4/../../../../arm-none-eabi/lib/armv7-m/libc.a(lib_a-fflush.o)
                                                  /Users/imac/Develop/stm32f4/arm_gcc/gcc-arm-none-eabi-4_7-2013q3/bin/../lib/gcc/arm-none-eabi/4.7.4/../../../../arm-none-eabi/lib/armv7-m/libc.a(lib_a-fclose.o)
                                                  /Users/imac/Develop/stm32f4/arm_gcc/gcc-arm-none-eabi-4_7-2013q3/bin/../lib/gcc/arm-none-eabi/4.7.4/../../../../arm-none-eabi/lib/armv7-m/libc.a(lib_a-ungetc.o)
                                                  /Users/imac/Develop/stm32f4/arm_gcc/gcc-arm-none-eabi-4_7-2013q3/bin/../lib/gcc/arm-none-eabi/4.7.4/../../../../arm-none-eabi/lib/armv7-m/libc.a(lib_a-strtoul.o)
                                                  /Users/imac/Develop/stm32f4/arm_gcc/gcc-arm-none-eabi-4_7-2013q3/bin/../lib/gcc/arm-none-eabi/4.7.4/../../../../arm-none-eabi/lib/armv7-m/libc.a(lib_a-strtol.o)
                                                  /Users/imac/Develop/stm32f4/arm_gcc/gcc-arm-none-eabi-4_7-2013q3/bin/../lib/gcc/arm-none-eabi/4.7.4/../../../../arm-none-eabi/lib/armv7-m/libc.a(lib_a-strtod.o)
                                                  /Users/imac/Develop/stm32f4/arm_gcc/gcc-arm-none-eabi-4_7-2013q3/bin/../lib/gcc/arm-none-eabi/4.7.4/../../../../arm-none-eabi/lib/armv7-m/libc.a(lib_a-sprintf.o)
                                                  /Users/imac/Develop/stm32f4/arm_gcc/gcc-arm-none-eabi-4_7-2013q3/bin/../lib/gcc/arm-none-eabi/4.7.4/../../../../arm-none-eabi/lib/armv7-m/libc.a(lib_a-reent.o)
                                                  /Users/imac/Develop/stm32f4/arm_gcc/gcc-arm-none-eabi-4_7-2013q3/bin/../lib/gcc/arm-none-eabi/4.7.4/../../../../arm-none-eabi/lib/armv7-m/libc.a(lib_a-mbrtowc.o)
                                                  /Users/imac/Develop/stm32f4/arm_gcc/gcc-arm-none-eabi-4_7-2013q3/bin/../lib/gcc/arm-none-eabi/4.7.4/../../../../arm-none-eabi/lib/armv7-m/libc.a(lib_a-locale.o)
                                                  /Users/imac/Develop/stm32f4/arm_gcc/gcc-arm-none-eabi-4_7-2013q3/bin/../lib/gcc/arm-none-eabi/4.7.4/../../../../arm-none-eabi/lib/armv7-m/libc.a(lib_a-findfp.o)
                                                  /Users/imac/Develop/stm32f4/arm_gcc/gcc-arm-none-eabi-4_7-2013q3/bin/../lib/gcc/arm-none-eabi/4.7.4/../../../../arm-none-eabi/lib/armv7-m/libc.a(lib_a-strtok.o)
                                                  /Users/imac/Develop/stm32f4/arm_gcc/gcc-arm-none-eabi-4_7-2013q3/bin/../lib/gcc/arm-none-eabi/4.7.4/../../../../arm-none-eabi/lib/armv7-m/libc.a(lib_a-sscanf.o)
                                                  /Users/imac/Develop/stm32f4/arm_gcc/gcc-arm-none-eabi-4_7-2013q3/bin/../lib/gcc/arm-none-eabi/4.7.4/../../../../arm-none-eabi/lib/armv7-m/libc.a(lib_a-errno.o)
_localeconv_r                                     /Users/imac/Develop/stm32f4/arm_gcc/gcc-arm-none-eabi-4_7-2013q3/bin/../lib/gcc/arm-none-eabi/4.7.4/../../../../arm-none-eabi/lib/armv7-m/libc.a(lib_a-locale.o)
                                                  /Users/imac/Develop/stm32f4/arm_gcc/gcc-arm-none-eabi-4_7-2013q3/bin/../lib/gcc/arm-none-eabi/4.7.4/../../../../arm-none-eabi/lib/armv7-m/libc.a(lib_a-gdtoa-gethex.o)
                                                  /Users/imac/Develop/stm32f4/arm_gcc/gcc-arm-none-eabi-4_7-2013q3/bin/../lib/gcc/arm-none-eabi/4.7.4/../../../../arm-none-eabi/lib/armv7-m/libc.a(lib_a-svfprintf.o)
                                                  /Users/imac/Develop/stm32f4/arm_gcc/gcc-arm-none-eabi-4_7-2013q3/bin/../lib/gcc/arm-none-eabi/4.7.4/../../../../arm-none-eabi/lib/armv7-m/libc.a(lib_a-strtod.o)
_lseek                                            /Users/imac/Develop/stm32f4/arm_gcc/gcc-arm-none-eabi-4_7-2013q3/bin/../lib/gcc/arm-none-eabi/4.7.4/../../../../arm-none-eabi/lib/armv7-m/libc.a(lib_a-lseekr.o)
_lseek_r                                          /Users/imac/Develop/stm32f4/arm_gcc/gcc-arm-none-eabi-4_7-2013q3/bin/../lib/gcc/arm-none-eabi/4.7.4/../../../../arm-none-eabi/lib/armv7-m/libc.a(lib_a-lseekr.o)
                                                  /Users/imac/Develop/stm32f4/arm_gcc/gcc-arm-none-eabi-4_7-2013q3/bin/../lib/gcc/arm-none-eabi/4.7.4/../../../../arm-none-eabi/lib/armv7-m/libc.a(lib_a-stdio.o)
_malloc_r                                         /Users/imac/Develop/stm32f4/arm_gcc/gcc-arm-none-eabi-4_7-2013q3/bin/../lib/gcc/arm-none-eabi/4.7.4/../../../../arm-none-eabi/lib/armv7-m/libc.a(lib_a-mallocr.o)
                                                  /Users/imac/Develop/stm32f4/arm_gcc/gcc-arm-none-eabi-4_7-2013q3/bin/../lib/gcc/arm-none-eabi/4.7.4/../../../../arm-none-eabi/lib/armv7-m/libc.a(lib_a-callocr.o)
                                                  /Users/imac/Develop/stm32f4/arm_gcc/gcc-arm-none-eabi-4_7-2013q3/bin/../lib/gcc/arm-none-eabi/4.7.4/../../../../arm-none-eabi/lib/armv7-m/libc.a(lib_a-svfiprintf.o)
                                                  /Users/imac/Develop/stm32f4/arm_gcc/gcc-arm-none-eabi-4_7-2013q3/bin/../lib/gcc/arm-none-eabi/4.7.4/../../../../arm-none-eabi/lib/armv7-m/libc.a(lib_a-reallocr.o)
                                                  /Users/imac/Develop/stm32f4/arm_gcc/gcc-arm-none-eabi-4_7-2013q3/bin/../lib/gcc/arm-none-eabi/4.7.4/../../../../arm-none-eabi/lib/armv7-m/libc.a(lib_a-ungetc.o)
                                                  /Users/imac/Develop/stm32f4/arm_gcc/gcc-arm-none-eabi-4_7-2013q3/bin/../lib/gcc/arm-none-eabi/4.7.4/../../../../arm-none-eabi/lib/armv7-m/libc.a(lib_a-svfprintf.o)
                                                  /Users/imac/Develop/stm32f4/arm_gcc/gcc-arm-none-eabi-4_7-2013q3/bin/../lib/gcc/arm-none-eabi/4.7.4/../../../../arm-none-eabi/lib/armv7-m/libc.a(lib_a-findfp.o)
_malloc_trim_r                                    /Users/imac/Develop/stm32f4/arm_gcc/gcc-arm-none-eabi-4_7-2013q3/bin/../lib/gcc/arm-none-eabi/4.7.4/../../../../arm-none-eabi/lib/armv7-m/libc.a(lib_a-freer.o)
_mbrtowc_r                                        /Users/imac/Develop/stm32f4/arm_gcc/gcc-arm-none-eabi-4_7-2013q3/bin/../lib/gcc/arm-none-eabi/4.7.4/../../../../arm-none-eabi/lib/armv7-m/libc.a(lib_a-mbrtowc.o)
                                                  /Users/imac/Develop/stm32f4/arm_gcc/gcc-arm-none-eabi-4_7-2013q3/bin/../lib/gcc/arm-none-eabi/4.7.4/../../../../arm-none-eabi/lib/armv7-m/libc.a(lib_a-svfiscanf.o)
                                                  /Users/imac/Develop/stm32f4/arm_gcc/gcc-arm-none-eabi-4_7-2013q3/bin/../lib/gcc/arm-none-eabi/4.7.4/../../../../arm-none-eabi/lib/armv7-m/libc.a(lib_a-svfscanf.o)
_mbtowc_r                                         /Users/imac/Develop/stm32f4/arm_gcc/gcc-arm-none-eabi-4_7-2013q3/bin/../lib/gcc/arm-none-eabi/4.7.4/../../../../arm-none-eabi/lib/armv7-m/libc.a(lib_a-mbtowc_r.o)
_mprec_log10                                      /Users/imac/Develop/stm32f4/arm_gcc/gcc-arm-none-eabi-4_7-2013q3/bin/../lib/gcc/arm-none-eabi/4.7.4/../../../../arm-none-eabi/lib/armv7-m/libc.a(lib_a-mprec.o)
_read                                             /Users/imac/Develop/stm32f4/arm_gcc/gcc-arm-none-eabi-4_7-2013q3/bin/../lib/gcc/arm-none-eabi/4.7.4/../../../../arm-none-eabi/lib/armv7-m/libc.a(lib_a-readr.o)
_read_r                                           /Users/imac/Develop/stm32f4/arm_gcc/gcc-arm-none-eabi-4_7-2013q3/bin/../lib/gcc/arm-none-eabi/4.7.4/../../../../arm-none-eabi/lib/armv7-m/libc.a(lib_a-readr.o)
                                                  /Users/imac/Develop/stm32f4/arm_gcc/gcc-arm-none-eabi-4_7-2013q3/bin/../lib/gcc/arm-none-eabi/4.7.4/../../../../arm-none-eabi/lib/armv7-m/libc.a(lib_a-stdio.o)
_realloc_r                                        /Users/imac/Develop/stm32f4/arm_gcc/gcc-arm-none-eabi-4_7-2013q3/bin/../lib/gcc/arm-none-eabi/4.7.4/../../../../arm-none-eabi/lib/armv7-m/libc.a(lib_a-reallocr.o)
                                                  /Users/imac/Develop/stm32f4/arm_gcc/gcc-arm-none-eabi-4_7-2013q3/bin/../lib/gcc/arm-none-eabi/4.7.4/../../../../arm-none-eabi/lib/armv7-m/libc.a(lib_a-svfiprintf.o)
                                                  /Users/imac/Develop/stm32f4/arm_gcc/gcc-arm-none-eabi-4_7-2013q3/bin/../lib/gcc/arm-none-eabi/4.7.4/../../../../arm-none-eabi/lib/armv7-m/libc.a(lib_a-ungetc.o)
_reclaim_reent                                    /Users/imac/Develop/stm32f4/arm_gcc/gcc-arm-none-eabi-4_7-2013q3/bin/../lib/gcc/arm-none-eabi/4.7.4/../../../../arm-none-eabi/lib/armv7-m/libc.a(lib_a-reent.o)
_sbrk                                             Lb_Util.o
                                                  /Users/imac/Develop/stm32f4/arm_gcc/gcc-arm-none-eabi-4_7-2013q3/bin/../lib/gcc/arm-none-eabi/4.7.4/../../../../arm-none-eabi/lib/armv7-m/libc.a(lib_a-sbrkr.o)
_sbrk_r                                           /Users/imac/Develop/stm32f4/arm_gcc/gcc-arm-none-eabi-4_7-2013q3/bin/../lib/gcc/arm-none-eabi/4.7.4/../../../../arm-none-eabi/lib/armv7-m/libc.a(lib_a-sbrkr.o)
                                                  /Users/imac/Develop/stm32f4/arm_gcc/gcc-arm-none-eabi-4_7-2013q3/bin/../lib/gcc/arm-none-eabi/4.7.4/../../../../arm-none-eabi/lib/armv7-m/libc.a(lib_a-freer.o)
                                                  /Users/imac/Develop/stm32f4/arm_gcc/gcc-arm-none-eabi-4_7-2013q3/bin/../lib/gcc/arm-none-eabi/4.7.4/../../../../arm-none-eabi/lib/armv7-m/libc.a(lib_a-mallocr.o)
_sbss                                             Hw_StartUp.o
_sdata                                            Hw_StartUp.o
_setlocale_r                                      /Users/imac/Develop/stm32f4/arm_gcc/gcc-arm-none-eabi-4_7-2013q3/bin/../lib/gcc/arm-none-eabi/4.7.4/../../../../arm-none-eabi/lib/armv7-m/libc.a(lib_a-locale.o)
_sfread_r                                         /Users/imac/Develop/stm32f4/arm_gcc/gcc-arm-none-eabi-4_7-2013q3/bin/../lib/gcc/arm-none-eabi/4.7.4/../../../../arm-none-eabi/lib/armv7-m/libc.a(lib_a-svfiscanf.o)
                                                  /Users/imac/Develop/stm32f4/arm_gcc/gcc-arm-none-eabi-4_7-2013q3/bin/../lib/gcc/arm-none-eabi/4.7.4/../../../../arm-none-eabi/lib/armv7-m/libc.a(lib_a-svfscanf.o)
_sidata                                           Hw_StartUp.o
_sprintf_r                                        /Users/imac/Develop/stm32f4/arm_gcc/gcc-arm-none-eabi-4_7-2013q3/bin/../lib/gcc/arm-none-eabi/4.7.4/../../../../arm-none-eabi/lib/armv7-m/libc.a(lib_a-sprintf.o)
_sscanf_r                                         /Users/imac/Develop/stm32f4/arm_gcc/gcc-arm-none-eabi-4_7-2013q3/bin/../lib/gcc/arm-none-eabi/4.7.4/../../../../arm-none-eabi/lib/armv7-m/libc.a(lib_a-sscanf.o)
_strtod_r                                         /Users/imac/Develop/stm32f4/arm_gcc/gcc-arm-none-eabi-4_7-2013q3/bin/../lib/gcc/arm-none-eabi/4.7.4/../../../../arm-none-eabi/lib/armv7-m/libc.a(lib_a-strtod.o)
                                                  /Users/imac/Develop/stm32f4/arm_gcc/gcc-arm-none-eabi-4_7-2013q3/bin/../lib/gcc/arm-none-eabi/4.7.4/../../../../arm-none-eabi/lib/armv7-m/libc.a(lib_a-svfscanf.o)
_strtol_r                                         /Users/imac/Develop/stm32f4/arm_gcc/gcc-arm-none-eabi-4_7-2013q3/bin/../lib/gcc/arm-none-eabi/4.7.4/../../../../arm-none-eabi/lib/armv7-m/libc.a(lib_a-strtol.o)
                                                  /Users/imac/Develop/stm32f4/arm_gcc/gcc-arm-none-eabi-4_7-2013q3/bin/../lib/gcc/arm-none-eabi/4.7.4/../../../../arm-none-eabi/lib/armv7-m/libc.a(lib_a-svfiscanf.o)
                                                  /Users/imac/Develop/stm32f4/arm_gcc/gcc-arm-none-eabi-4_7-2013q3/bin/../lib/gcc/arm-none-eabi/4.7.4/../../../../arm-none-eabi/lib/armv7-m/libc.a(lib_a-svfscanf.o)
_strtoll_r                                        /Users/imac/Develop/stm32f4/arm_gcc/gcc-arm-none-eabi-4_7-2013q3/bin/../lib/gcc/arm-none-eabi/4.7.4/../../../../arm-none-eabi/lib/armv7-m/libc.a(lib_a-strtoll_r.o)
                                                  /Users/imac/Develop/stm32f4/arm_gcc/gcc-arm-none-eabi-4_7-2013q3/bin/../lib/gcc/arm-none-eabi/4.7.4/../../../../arm-none-eabi/lib/armv7-m/libc.a(lib_a-svfiscanf.o)
                                                  /Users/imac/Develop/stm32f4/arm_gcc/gcc-arm-none-eabi-4_7-2013q3/bin/../lib/gcc/arm-none-eabi/4.7.4/../../../../arm-none-eabi/lib/armv7-m/libc.a(lib_a-svfscanf.o)
_strtoul_r                                        /Users/imac/Develop/stm32f4/arm_gcc/gcc-arm-none-eabi-4_7-2013q3/bin/../lib/gcc/arm-none-eabi/4.7.4/../../../../arm-none-eabi/lib/armv7-m/libc.a(lib_a-strtoul.o)
                                                  /Users/imac/Develop/stm32f4/arm_gcc/gcc-arm-none-eabi-4_7-2013q3/bin/../lib/gcc/arm-none-eabi/4.7.4/../../../../arm-none-eabi/lib/armv7-m/libc.a(lib_a-svfiscanf.o)
                                                  /Users/imac/Develop/stm32f4/arm_gcc/gcc-arm-none-eabi-4_7-2013q3/bin/../lib/gcc/arm-none-eabi/4.7.4/../../../../arm-none-eabi/lib/armv7-m/libc.a(lib_a-svfscanf.o)
_strtoull_r                                       /Users/imac/Develop/stm32f4/arm_gcc/gcc-arm-none-eabi-4_7-2013q3/bin/../lib/gcc/arm-none-eabi/4.7.4/../../../../arm-none-eabi/lib/armv7-m/libc.a(lib_a-strtoull_r.o)
                                                  /Users/imac/Develop/stm32f4/arm_gcc/gcc-arm-none-eabi-4_7-2013q3/bin/../lib/gcc/arm-none-eabi/4.7.4/../../../../arm-none-eabi/lib/armv7-m/libc.a(lib_a-svfiscanf.o)
                                                  /Users/imac/Develop/stm32f4/arm_gcc/gcc-arm-none-eabi-4_7-2013q3/bin/../lib/gcc/arm-none-eabi/4.7.4/../../../../arm-none-eabi/lib/armv7-m/libc.a(lib_a-svfscanf.o)
_sungetc_r                                        /Users/imac/Develop/stm32f4/arm_gcc/gcc-arm-none-eabi-4_7-2013q3/bin/../lib/gcc/arm-none-eabi/4.7.4/../../../../arm-none-eabi/lib/armv7-m/libc.a(lib_a-svfiscanf.o)
                                                  /Users/imac/Develop/stm32f4/arm_gcc/gcc-arm-none-eabi-4_7-2013q3/bin/../lib/gcc/arm-none-eabi/4.7.4/../../../../arm-none-eabi/lib/armv7-m/libc.a(lib_a-svfscanf.o)
_svfiprintf_r                                     /Users/imac/Develop/stm32f4/arm_gcc/gcc-arm-none-eabi-4_7-2013q3/bin/../lib/gcc/arm-none-eabi/4.7.4/../../../../arm-none-eabi/lib/armv7-m/libc.a(lib_a-svfiprintf.o)
_svfprintf_r                                      /Users/imac/Develop/stm32f4/arm_gcc/gcc-arm-none-eabi-4_7-2013q3/bin/../lib/gcc/arm-none-eabi/4.7.4/../../../../arm-none-eabi/lib/armv7-m/libc.a(lib_a-svfprintf.o)
                                                  /Users/imac/Develop/stm32f4/arm_gcc/gcc-arm-none-eabi-4_7-2013q3/bin/../lib/gcc/arm-none-eabi/4.7.4/../../../../arm-none-eabi/lib/armv7-m/libc.a(lib_a-sprintf.o)
_ungetc_r                                         /Users/imac/Develop/stm32f4/arm_gcc/gcc-arm-none-eabi-4_7-2013q3/bin/../lib/gcc/arm-none-eabi/4.7.4/../../../../arm-none-eabi/lib/armv7-m/libc.a(lib_a-ungetc.o)
_wrapup_reent                                     /Users/imac/Develop/stm32f4/arm_gcc/gcc-arm-none-eabi-4_7-2013q3/bin/../lib/gcc/arm-none-eabi/4.7.4/../../../../arm-none-eabi/lib/armv7-m/libc.a(lib_a-reent.o)
_write                                            /Users/imac/Develop/stm32f4/arm_gcc/gcc-arm-none-eabi-4_7-2013q3/bin/../lib/gcc/arm-none-eabi/4.7.4/../../../../arm-none-eabi/lib/armv7-m/libc.a(lib_a-writer.o)
_write_r                                          /Users/imac/Develop/stm32f4/arm_gcc/gcc-arm-none-eabi-4_7-2013q3/bin/../lib/gcc/arm-none-eabi/4.7.4/../../../../arm-none-eabi/lib/armv7-m/libc.a(lib_a-writer.o)
                                                  /Users/imac/Develop/stm32f4/arm_gcc/gcc-arm-none-eabi-4_7-2013q3/bin/../lib/gcc/arm-none-eabi/4.7.4/../../../../arm-none-eabi/lib/armv7-m/libc.a(lib_a-stdio.o)
bDeviceState                                      usb_pwr.o
                                                  hw_config.o
                                                  usb_prop.o
                                                  usb_endp.o
bIntPackSOF                                       usb_istr.o
cleanup_glue                                      /Users/imac/Develop/stm32f4/arm_gcc/gcc-arm-none-eabi-4_7-2013q3/bin/../lib/gcc/arm-none-eabi/4.7.4/../../../../arm-none-eabi/lib/armv7-m/libc.a(lib_a-reent.o)
delay                                             Lb_Util.o
delay_second                                      Lb_Util.o
errno                                             /Users/imac/Develop/stm32f4/arm_gcc/gcc-arm-none-eabi-4_7-2013q3/bin/../lib/gcc/arm-none-eabi/4.7.4/../../../../arm-none-eabi/lib/armv7-m/libc.a(lib_a-sbrkr.o)
                                                  /Users/imac/Develop/stm32f4/arm_gcc/gcc-arm-none-eabi-4_7-2013q3/bin/../lib/gcc/arm-none-eabi/4.7.4/../../../../arm-none-eabi/lib/armv7-m/libc.a(lib_a-reent.o)
                                                  /Users/imac/Develop/stm32f4/arm_gcc/gcc-arm-none-eabi-4_7-2013q3/bin/../lib/gcc/arm-none-eabi/4.7.4/../../../../arm-none-eabi/lib/armv7-m/libc.a(lib_a-readr.o)
                                                  /Users/imac/Develop/stm32f4/arm_gcc/gcc-arm-none-eabi-4_7-2013q3/bin/../lib/gcc/arm-none-eabi/4.7.4/../../../../arm-none-eabi/lib/armv7-m/libc.a(lib_a-lseekr.o)
                                                  /Users/imac/Develop/stm32f4/arm_gcc/gcc-arm-none-eabi-4_7-2013q3/bin/../lib/gcc/arm-none-eabi/4.7.4/../../../../arm-none-eabi/lib/armv7-m/libc.a(lib_a-closer.o)
                                                  /Users/imac/Develop/stm32f4/arm_gcc/gcc-arm-none-eabi-4_7-2013q3/bin/../lib/gcc/arm-none-eabi/4.7.4/../../../../arm-none-eabi/lib/armv7-m/libc.a(lib_a-writer.o)
esof_counter                                      usb_istr.o
fSuspendEnabled                                   usb_pwr.o
                                                  usb_istr.o
fclose                                            /Users/imac/Develop/stm32f4/arm_gcc/gcc-arm-none-eabi-4_7-2013q3/bin/../lib/gcc/arm-none-eabi/4.7.4/../../../../arm-none-eabi/lib/armv7-m/libc.a(lib_a-fclose.o)
                                                  /Users/imac/Develop/stm32f4/arm_gcc/gcc-arm-none-eabi-4_7-2013q3/bin/../lib/gcc/arm-none-eabi/4.7.4/../../../../arm-none-eabi/lib/armv7-m/libc.a(lib_a-findfp.o)
fflush                                            /Users/imac/Develop/stm32f4/arm_gcc/gcc-arm-none-eabi-4_7-2013q3/bin/../lib/gcc/arm-none-eabi/4.7.4/../../../../arm-none-eabi/lib/armv7-m/libc.a(lib_a-fflush.o)
g_pfnVectors                                      Hw_StartUp.o
get_byte                                          Hw_Uart.o
                                                  Ap_EduMenu.o
                                                  Ap_GLcdMenu.o
                                                  Ap_RadioMenu.o
iswspace                                          /Users/imac/Develop/stm32f4/arm_gcc/gcc-arm-none-eabi-4_7-2013q3/bin/../lib/gcc/arm-none-eabi/4.7.4/../../../../arm-none-eabi/lib/armv7-m/libc.a(lib_a-iswspace.o)
                                                  /Users/imac/Develop/stm32f4/arm_gcc/gcc-arm-none-eabi-4_7-2013q3/bin/../lib/gcc/arm-none-eabi/4.7.4/../../../../arm-none-eabi/lib/armv7-m/libc.a(lib_a-svfiscanf.o)
                                                  /Users/imac/Develop/stm32f4/arm_gcc/gcc-arm-none-eabi-4_7-2013q3/bin/../lib/gcc/arm-none-eabi/4.7.4/../../../../arm-none-eabi/lib/armv7-m/libc.a(lib_a-svfscanf.o)
linecoding                                        usb_prop.o
localeconv                                        /Users/imac/Develop/stm32f4/arm_gcc/gcc-arm-none-eabi-4_7-2013q3/bin/../lib/gcc/arm-none-eabi/4.7.4/../../../../arm-none-eabi/lib/armv7-m/libc.a(lib_a-locale.o)
main                                              main.o
                                                  Hw_StartUp.o
mbrtowc                                           /Users/imac/Develop/stm32f4/arm_gcc/gcc-arm-none-eabi-4_7-2013q3/bin/../lib/gcc/arm-none-eabi/4.7.4/../../../../arm-none-eabi/lib/armv7-m/libc.a(lib_a-mbrtowc.o)
memchr                                            /Users/imac/Develop/stm32f4/arm_gcc/gcc-arm-none-eabi-4_7-2013q3/bin/../lib/gcc/arm-none-eabi/4.7.4/../../../../arm-none-eabi/lib/armv7-m/libc.a(lib_a-memchr.o)
                                                  /Users/imac/Develop/stm32f4/arm_gcc/gcc-arm-none-eabi-4_7-2013q3/bin/../lib/gcc/arm-none-eabi/4.7.4/../../../../arm-none-eabi/lib/armv7-m/libc.a(lib_a-svfiprintf.o)
                                                  /Users/imac/Develop/stm32f4/arm_gcc/gcc-arm-none-eabi-4_7-2013q3/bin/../lib/gcc/arm-none-eabi/4.7.4/../../../../arm-none-eabi/lib/armv7-m/libc.a(lib_a-svfprintf.o)
memcpy                                            /Users/imac/Develop/stm32f4/arm_gcc/gcc-arm-none-eabi-4_7-2013q3/bin/../lib/gcc/arm-none-eabi/4.7.4/../../../../arm-none-eabi/lib/armv7-m/libc.a(lib_a-memcpy.o)
                                                  /Users/imac/Develop/stm32f4/arm_gcc/gcc-arm-none-eabi-4_7-2013q3/bin/../lib/gcc/arm-none-eabi/4.7.4/../../../../arm-none-eabi/lib/armv7-m/libc.a(lib_a-svfiprintf.o)
                                                  /Users/imac/Develop/stm32f4/arm_gcc/gcc-arm-none-eabi-4_7-2013q3/bin/../lib/gcc/arm-none-eabi/4.7.4/../../../../arm-none-eabi/lib/armv7-m/libc.a(lib_a-mprec.o)
                                                  /Users/imac/Develop/stm32f4/arm_gcc/gcc-arm-none-eabi-4_7-2013q3/bin/../lib/gcc/arm-none-eabi/4.7.4/../../../../arm-none-eabi/lib/armv7-m/libc.a(lib_a-gdtoa-gethex.o)
                                                  /Users/imac/Develop/stm32f4/arm_gcc/gcc-arm-none-eabi-4_7-2013q3/bin/../lib/gcc/arm-none-eabi/4.7.4/../../../../arm-none-eabi/lib/armv7-m/libc.a(lib_a-dtoa.o)
                                                  /Users/imac/Develop/stm32f4/arm_gcc/gcc-arm-none-eabi-4_7-2013q3/bin/../lib/gcc/arm-none-eabi/4.7.4/../../../../arm-none-eabi/lib/armv7-m/libc.a(lib_a-ungetc.o)
                                                  /Users/imac/Develop/stm32f4/arm_gcc/gcc-arm-none-eabi-4_7-2013q3/bin/../lib/gcc/arm-none-eabi/4.7.4/../../../../arm-none-eabi/lib/armv7-m/libc.a(lib_a-svfiscanf.o)
                                                  /Users/imac/Develop/stm32f4/arm_gcc/gcc-arm-none-eabi-4_7-2013q3/bin/../lib/gcc/arm-none-eabi/4.7.4/../../../../arm-none-eabi/lib/armv7-m/libc.a(lib_a-strtod.o)
memmove                                           /Users/imac/Develop/stm32f4/arm_gcc/gcc-arm-none-eabi-4_7-2013q3/bin/../lib/gcc/arm-none-eabi/4.7.4/../../../../arm-none-eabi/lib/armv7-m/libc.a(lib_a-memmove.o)
                                                  /Users/imac/Develop/stm32f4/arm_gcc/gcc-arm-none-eabi-4_7-2013q3/bin/../lib/gcc/arm-none-eabi/4.7.4/../../../../arm-none-eabi/lib/armv7-m/libc.a(lib_a-svfiprintf.o)
                                                  /Users/imac/Develop/stm32f4/arm_gcc/gcc-arm-none-eabi-4_7-2013q3/bin/../lib/gcc/arm-none-eabi/4.7.4/../../../../arm-none-eabi/lib/armv7-m/libc.a(lib_a-reallocr.o)
memset                                            /Users/imac/Develop/stm32f4/arm_gcc/gcc-arm-none-eabi-4_7-2013q3/bin/../lib/gcc/arm-none-eabi/4.7.4/../../../../arm-none-eabi/lib/armv7-m/libc.a(lib_a-memset.o)
                                                  /Users/imac/Develop/stm32f4/arm_gcc/gcc-arm-none-eabi-4_7-2013q3/bin/../lib/gcc/arm-none-eabi/4.7.4/../../../../arm-none-eabi/lib/armv7-m/libc.a(lib_a-callocr.o)
                                                  /Users/imac/Develop/stm32f4/arm_gcc/gcc-arm-none-eabi-4_7-2013q3/bin/../lib/gcc/arm-none-eabi/4.7.4/../../../../arm-none-eabi/lib/armv7-m/libc.a(lib_a-svfiscanf.o)
                                                  /Users/imac/Develop/stm32f4/arm_gcc/gcc-arm-none-eabi-4_7-2013q3/bin/../lib/gcc/arm-none-eabi/4.7.4/../../../../arm-none-eabi/lib/armv7-m/libc.a(lib_a-findfp.o)
                                                  /Users/imac/Develop/stm32f4/arm_gcc/gcc-arm-none-eabi-4_7-2013q3/bin/../lib/gcc/arm-none-eabi/4.7.4/../../../../arm-none-eabi/lib/armv7-m/libc.a(lib_a-svfscanf.o)
nanf                                              /Users/imac/Develop/stm32f4/arm_gcc/gcc-arm-none-eabi-4_7-2013q3/bin/../lib/gcc/arm-none-eabi/4.7.4/../../../../arm-none-eabi/lib/armv7-m/libc.a(lib_a-sf_nan.o)
                                                  /Users/imac/Develop/stm32f4/arm_gcc/gcc-arm-none-eabi-4_7-2013q3/bin/../lib/gcc/arm-none-eabi/4.7.4/../../../../arm-none-eabi/lib/armv7-m/libc.a(lib_a-strtod.o)
                                                  /Users/imac/Develop/stm32f4/arm_gcc/gcc-arm-none-eabi-4_7-2013q3/bin/../lib/gcc/arm-none-eabi/4.7.4/../../../../arm-none-eabi/lib/armv7-m/libc.a(lib_a-svfscanf.o)
pEpInt_IN                                         usb_istr.o
                                                  usb_int.o
pEpInt_OUT                                        usb_istr.o
                                                  usb_int.o
pInformation                                      usb_init.o
                                                  usb_core.o
                                                  usb_prop.o
pProperty                                         usb_init.o
                                                  usb_core.o
pStrPrintBuf                                      Lb_Printf.o
pUser_Standard_Requests                           usb_init.o
                                                  usb_core.o
print_byte                                        Hw_Uart.o
                                                  Lb_Printf.o
print_byte_out                                    Lb_Printf.o
remotewakeupon                                    usb_pwr.o
setlocale                                         /Users/imac/Develop/stm32f4/arm_gcc/gcc-arm-none-eabi-4_7-2013q3/bin/../lib/gcc/arm-none-eabi/4.7.4/../../../../arm-none-eabi/lib/armv7-m/libc.a(lib_a-locale.o)
sprintf                                           /Users/imac/Develop/stm32f4/arm_gcc/gcc-arm-none-eabi-4_7-2013q3/bin/../lib/gcc/arm-none-eabi/4.7.4/../../../../arm-none-eabi/lib/armv7-m/libc.a(lib_a-sprintf.o)
                                                  /Users/imac/Develop/stm32f4/arm_gcc/gcc-arm-none-eabi-4_7-2013q3/bin/../lib/gcc/arm-none-eabi/4.7.4/../../../../arm-none-eabi/lib/armv7-m/libc.a(lib_a-svfscanf.o)
sscanf                                            /Users/imac/Develop/stm32f4/arm_gcc/gcc-arm-none-eabi-4_7-2013q3/bin/../lib/gcc/arm-none-eabi/4.7.4/../../../../arm-none-eabi/lib/armv7-m/libc.a(lib_a-sscanf.o)
                                                  Ap_StrCmd.o
strcmp                                            /Users/imac/Develop/stm32f4/arm_gcc/gcc-arm-none-eabi-4_7-2013q3/bin/../lib/gcc/arm-none-eabi/4.7.4/../../../../arm-none-eabi/lib/armv7-m/libc.a(lib_a-strcmp.o)
                                                  /Users/imac/Develop/stm32f4/arm_gcc/gcc-arm-none-eabi-4_7-2013q3/bin/../lib/gcc/arm-none-eabi/4.7.4/../../../../arm-none-eabi/lib/armv7-m/libc.a(lib_a-locale.o)
                                                  Ap_StrCmd_MOVE.o
strlen                                            /Users/imac/Develop/stm32f4/arm_gcc/gcc-arm-none-eabi-4_7-2013q3/bin/../lib/gcc/arm-none-eabi/4.7.4/../../../../arm-none-eabi/lib/armv7-m/libc.a(lib_a-strlen.o)
                                                  /Users/imac/Develop/stm32f4/arm_gcc/gcc-arm-none-eabi-4_7-2013q3/bin/../lib/gcc/arm-none-eabi/4.7.4/../../../../arm-none-eabi/lib/armv7-m/libc.a(lib_a-svfiprintf.o)
                                                  /Users/imac/Develop/stm32f4/arm_gcc/gcc-arm-none-eabi-4_7-2013q3/bin/../lib/gcc/arm-none-eabi/4.7.4/../../../../arm-none-eabi/lib/armv7-m/libc.a(lib_a-gdtoa-gethex.o)
                                                  /Users/imac/Develop/stm32f4/arm_gcc/gcc-arm-none-eabi-4_7-2013q3/bin/../lib/gcc/arm-none-eabi/4.7.4/../../../../arm-none-eabi/lib/armv7-m/libc.a(lib_a-svfprintf.o)
                                                  /Users/imac/Develop/stm32f4/arm_gcc/gcc-arm-none-eabi-4_7-2013q3/bin/../lib/gcc/arm-none-eabi/4.7.4/../../../../arm-none-eabi/lib/armv7-m/libc.a(lib_a-strtod.o)
                                                  /Users/imac/Develop/stm32f4/arm_gcc/gcc-arm-none-eabi-4_7-2013q3/bin/../lib/gcc/arm-none-eabi/4.7.4/../../../../arm-none-eabi/lib/armv7-m/libc.a(lib_a-sscanf.o)
                                                  Ap_StrCmd.o
strncmp                                           /Users/imac/Develop/stm32f4/arm_gcc/gcc-arm-none-eabi-4_7-2013q3/bin/../lib/gcc/arm-none-eabi/4.7.4/../../../../arm-none-eabi/lib/armv7-m/libc.a(lib_a-strncmp.o)
                                                  /Users/imac/Develop/stm32f4/arm_gcc/gcc-arm-none-eabi-4_7-2013q3/bin/../lib/gcc/arm-none-eabi/4.7.4/../../../../arm-none-eabi/lib/armv7-m/libc.a(lib_a-gdtoa-gethex.o)
                                                  /Users/imac/Develop/stm32f4/arm_gcc/gcc-arm-none-eabi-4_7-2013q3/bin/../lib/gcc/arm-none-eabi/4.7.4/../../../../arm-none-eabi/lib/armv7-m/libc.a(lib_a-strtod.o)
                                                  Ap_StrCmd.o
strtod                                            /Users/imac/Develop/stm32f4/arm_gcc/gcc-arm-none-eabi-4_7-2013q3/bin/../lib/gcc/arm-none-eabi/4.7.4/../../../../arm-none-eabi/lib/armv7-m/libc.a(lib_a-strtod.o)
strtof                                            /Users/imac/Develop/stm32f4/arm_gcc/gcc-arm-none-eabi-4_7-2013q3/bin/../lib/gcc/arm-none-eabi/4.7.4/../../../../arm-none-eabi/lib/armv7-m/libc.a(lib_a-strtod.o)
strtok                                            /Users/imac/Develop/stm32f4/arm_gcc/gcc-arm-none-eabi-4_7-2013q3/bin/../lib/gcc/arm-none-eabi/4.7.4/../../../../arm-none-eabi/lib/armv7-m/libc.a(lib_a-strtok.o)
                                                  Lb_Util.o
strtok_r                                          /Users/imac/Develop/stm32f4/arm_gcc/gcc-arm-none-eabi-4_7-2013q3/bin/../lib/gcc/arm-none-eabi/4.7.4/../../../../arm-none-eabi/lib/armv7-m/libc.a(lib_a-strtok_r.o)
strtol                                            /Users/imac/Develop/stm32f4/arm_gcc/gcc-arm-none-eabi-4_7-2013q3/bin/../lib/gcc/arm-none-eabi/4.7.4/../../../../arm-none-eabi/lib/armv7-m/libc.a(lib_a-strtol.o)
strtoul                                           /Users/imac/Develop/stm32f4/arm_gcc/gcc-arm-none-eabi-4_7-2013q3/bin/../lib/gcc/arm-none-eabi/4.7.4/../../../../arm-none-eabi/lib/armv7-m/libc.a(lib_a-strtoul.o)
ungetc                                            /Users/imac/Develop/stm32f4/arm_gcc/gcc-arm-none-eabi-4_7-2013q3/bin/../lib/gcc/arm-none-eabi/4.7.4/../../../../arm-none-eabi/lib/armv7-m/libc.a(lib_a-ungetc.o)
wCNTR                                             usb_istr.o
wInterrupt_Mask                                   usb_sil.o
                                                  usb_init.o
                                                  usb_pwr.o
                                                  usb_istr.o
wIstr                                             usb_int.o
                                                  usb_istr.o
